	.cpu cortex-m4
	.eabi_attribute 27, 1	@ Tag_ABI_HardFP_use
	.eabi_attribute 28, 1	@ Tag_ABI_VFP_args
	.eabi_attribute 20, 1	@ Tag_ABI_FP_denormal
	.eabi_attribute 21, 1	@ Tag_ABI_FP_exceptions
	.eabi_attribute 23, 3	@ Tag_ABI_FP_number_model
	.eabi_attribute 24, 1	@ Tag_ABI_align8_needed
	.eabi_attribute 25, 1	@ Tag_ABI_align8_preserved
	.eabi_attribute 26, 1	@ Tag_ABI_enum_size
	.eabi_attribute 30, 1	@ Tag_ABI_optimization_goals
	.eabi_attribute 34, 1	@ Tag_CPU_unaligned_access
	.eabi_attribute 18, 4	@ Tag_ABI_PCS_wchar_t
	.file	"median.c"
@ GNU C11 (GNU Tools for Arm Embedded Processors 7-2017-q4-major) version 7.2.1 20170904 (release) [ARM/embedded-7-branch revision 255204] (arm-none-eabi)
@	compiled by GNU C version 5.3.1 20160211, GMP version 6.1.0, MPFR version 3.1.4, MPC version 1.0.3, isl version isl-0.15-GMP

@ GGC heuristics: --param ggc-min-expand=100 --param ggc-min-heapsize=131072
@ options passed:  -fpreprocessed Src/median.i -mcpu=cortex-m4 -mthumb
@ -mfloat-abi=hard -mfpu=fpv4-sp-d16 -auxbase-strip Src/median.o -g3 -Og
@ -Wall -fmessage-length=0 -fverbose-asm -ffunction-sections
@ -fmessage-length=0
@ options enabled:  -faggressive-loop-optimizations -fauto-inc-dec
@ -fchkp-check-incomplete-type -fchkp-check-read -fchkp-check-write
@ -fchkp-instrument-calls -fchkp-narrow-bounds -fchkp-optimize
@ -fchkp-store-bounds -fchkp-use-static-bounds
@ -fchkp-use-static-const-bounds -fchkp-use-wrappers
@ -fcombine-stack-adjustments -fcommon -fcompare-elim -fcprop-registers
@ -fdefer-pop -fdelete-null-pointer-checks -fdwarf2-cfi-asm
@ -fearly-inlining -feliminate-unused-debug-types -fforward-propagate
@ -ffp-int-builtin-inexact -ffunction-cse -ffunction-sections -fgcse-lm
@ -fgnu-runtime -fgnu-unique -fguess-branch-probability -fident -finline
@ -finline-atomics -fipa-profile -fipa-pure-const -fipa-reference
@ -fira-hoist-pressure -fira-share-save-slots -fira-share-spill-slots
@ -fivopts -fkeep-static-consts -fleading-underscore -flifetime-dse
@ -flto-odr-type-merging -fmath-errno -fmerge-constants
@ -fmerge-debug-strings -fomit-frame-pointer -fpeephole -fplt
@ -fprefetch-loop-arrays -freg-struct-return -freorder-blocks
@ -fsched-critical-path-heuristic -fsched-dep-count-heuristic
@ -fsched-group-heuristic -fsched-interblock -fsched-last-insn-heuristic
@ -fsched-pressure -fsched-rank-heuristic -fsched-spec
@ -fsched-spec-insn-heuristic -fsched-stalled-insns-dep -fsection-anchors
@ -fsemantic-interposition -fshow-column -fshrink-wrap
@ -fshrink-wrap-separate -fsigned-zeros -fsplit-ivs-in-unroller
@ -fsplit-wide-types -fssa-backprop -fstdarg-opt
@ -fstrict-volatile-bitfields -fsync-libcalls -ftoplevel-reorder
@ -ftrapping-math -ftree-builtin-call-dce -ftree-ccp -ftree-ch
@ -ftree-coalesce-vars -ftree-copy-prop -ftree-cselim -ftree-dce
@ -ftree-dominator-opts -ftree-dse -ftree-forwprop -ftree-fre
@ -ftree-loop-if-convert -ftree-loop-im -ftree-loop-ivcanon
@ -ftree-loop-optimize -ftree-parallelize-loops= -ftree-phiprop
@ -ftree-reassoc -ftree-scev-cprop -ftree-sink -ftree-slsr -ftree-ter
@ -funit-at-a-time -fvar-tracking -fvar-tracking-assignments -fverbose-asm
@ -fzero-initialized-in-bss -masm-syntax-unified -mlittle-endian
@ -mpic-data-is-text-relative -msched-prolog -mthumb -munaligned-access
@ -mvectorize-with-neon-quad

	.text
.Ltext0:
	.cfi_sections	.debug_frame
	.section	.text.median_filter_init,"ax",%progbits
	.align	1
	.global	median_filter_init
	.syntax unified
	.thumb
	.thumb_func
	.fpu fpv4-sp-d16
	.type	median_filter_init, %function
median_filter_init:
.LFB0:
	.file 1 "../Src/median.c"
	.loc 1 28 0
	.cfi_startproc
	@ args = 0, pretend = 0, frame = 0
	@ frame_needed = 0, uses_anonymous_args = 0
.LVL0:
	push	{r3, r4, r5, lr}	@
	.cfi_def_cfa_offset 16
	.cfi_offset 3, -16
	.cfi_offset 4, -12
	.cfi_offset 5, -8
	.cfi_offset 14, -4
	mov	r4, r0	@ pctx, pctx
@ ../Src/median.c:30:   memset(pctx->buffer, 0, sizeof(pctx->buffer));
	.loc 1 30 0
	add	r5, r0, #20	@ _1, pctx,
	movs	r2, #56	@,
	movs	r1, #0	@,
	mov	r0, r5	@, _1
.LVL1:
	bl	memset	@
.LVL2:
@ ../Src/median.c:32:   pctx->datpoint = pctx->buffer;
	.loc 1 32 0
	str	r5, [r4]	@ _1, pctx_3(D)->datpoint
@ ../Src/median.c:34:   pctx->small.point = NULL;
	.loc 1 34 0
	movs	r3, #0	@ tmp116,
	str	r3, [r4, #4]	@ tmp116, pctx_3(D)->small.point
@ ../Src/median.c:35:   pctx->small.value = STOPPER;
	.loc 1 35 0
	strh	r3, [r4, #8]	@ movhi	@ tmp116, pctx_3(D)->small.value
@ ../Src/median.c:37:   pctx->big.point = &(pctx->small);
	.loc 1 37 0
	adds	r2, r4, #4	@ _2, pctx,
	str	r2, [r4, #12]	@ _2, pctx_3(D)->big.point
@ ../Src/median.c:38:   pctx->big.value = 0;
	.loc 1 38 0
	strh	r3, [r4, #16]	@ movhi	@ tmp116, pctx_3(D)->big.value
@ ../Src/median.c:39: }
	.loc 1 39 0
	pop	{r3, r4, r5, pc}	@
	.cfi_endproc
.LFE0:
	.size	median_filter_init, .-median_filter_init
	.section	.text.median_filter,"ax",%progbits
	.align	1
	.global	median_filter
	.syntax unified
	.thumb
	.thumb_func
	.fpu fpv4-sp-d16
	.type	median_filter, %function
median_filter:
.LFB1:
	.loc 1 43 0
	.cfi_startproc
	@ args = 0, pretend = 0, frame = 0
	@ frame_needed = 0, uses_anonymous_args = 0
.LVL3:
	push	{r4, r5, r6, r7, lr}	@
	.cfi_def_cfa_offset 20
	.cfi_offset 4, -20
	.cfi_offset 5, -16
	.cfi_offset 6, -12
	.cfi_offset 7, -8
	.cfi_offset 14, -4
@ ../Src/median.c:51:  if (datum == STOPPER)
	.loc 1 51 0
	mov	r4, r0	@ datum, datum
	cbnz	r0, .L4	@ datum,
@ ../Src/median.c:53:    datum = STOPPER + 1;                         /* No stoppers allowed. */
	.loc 1 53 0
	movs	r4, #1	@ datum,
.L4:
.LVL4:
@ ../Src/median.c:56:  if ( (++(pctx->datpoint) - pctx->buffer) >= MEDIAN_FILTER_SIZE)
	.loc 1 56 0
	ldr	r3, [r1]	@ _1, pctx_42(D)->datpoint
	adds	r3, r3, #8	@ _2, _1,
	mov	r2, r1	@ _4, pctx
	str	r3, [r2], #20	@ _2, pctx_42(D)->datpoint
	subs	r3, r3, r2	@ _6, _2, _4
	cmp	r3, #48	@ _6,
	ble	.L5	@,
@ ../Src/median.c:58:    pctx->datpoint = pctx->buffer;               /* Increment and wrap data in pointer.*/
	.loc 1 58 0
	str	r2, [r1]	@ _4, pctx_42(D)->datpoint
.L5:
@ ../Src/median.c:61:  pctx->datpoint->value = datum;                 /* Copy in new datum */
	.loc 1 61 0
	ldr	r3, [r1]	@ _7, pctx_42(D)->datpoint
	strh	r4, [r3, #4]	@ movhi	@ datum, _7->value
@ ../Src/median.c:62:  successor = pctx->datpoint->point;             /* Save pointer to old value's successor */
	.loc 1 62 0
	mov	r3, r1	@ scanold, pctx
	ldr	r2, [r3], #12	@ _8, pctx_42(D)->datpoint
	ldr	lr, [r2]	@ successor, _8->point
.LVL5:
@ ../Src/median.c:68:  if (scan->point == pctx->datpoint)
	.loc 1 68 0
	ldr	r0, [r1, #12]	@ _9, MEM[(struct pair_t *)pctx_42(D) + 12B].point
	cmp	r2, r0	@ _8, _9
	beq	.L16	@,
.L6:
.LVL6:
@ ../Src/median.c:73:  scan = scan->point ;                           /* step down chain */
	.loc 1 73 0
	ldr	r2, [r1, #12]	@ scan, MEM[(struct pair_t *)pctx_42(D) + 12B].point
.LVL7:
@ ../Src/median.c:63:  median = &(pctx->big);                         /* Median initially to first in chain */
	.loc 1 63 0
	mov	ip, r3	@ median, scanold
@ ../Src/median.c:76:  for (i = 0; i < MEDIAN_FILTER_SIZE; ++i)
	.loc 1 76 0
	movs	r0, #0	@ i,
	b	.L7	@
.LVL8:
.L16:
@ ../Src/median.c:70:    scan->point = successor;
	.loc 1 70 0
	str	lr, [r1, #12]	@ successor, MEM[(struct pair_t *)pctx_42(D) + 12B].point
	b	.L6	@
.LVL9:
.L17:
@ ../Src/median.c:81:      scan->point = successor;                      /* Chain out the old datum.*/
	.loc 1 81 0
	str	lr, [r2]	@ successor, scan_27->point
	b	.L8	@
.LVL10:
.L18:
@ ../Src/median.c:103:      scan->point = successor;
	.loc 1 103 0
	str	lr, [r3]	@ successor, scan_54->point
	b	.L11	@
.LVL11:
.L12:
@ ../Src/median.c:113:    if (scan == &(pctx->small))
	.loc 1 113 0
	cmp	r5, r3	@ _16, scanold
	beq	.L10	@,
.LVL12:
@ ../Src/median.c:119:    scan = scan->point;
	.loc 1 119 0 discriminator 2
	ldr	r2, [r3]	@ scan, scan_54->point
.LVL13:
@ ../Src/median.c:76:  for (i = 0; i < MEDIAN_FILTER_SIZE; ++i)
	.loc 1 76 0 discriminator 2
	adds	r0, r0, #1	@ tmp141, i,
.LVL14:
	uxth	r0, r0	@ i, tmp141
.LVL15:
.L7:
@ ../Src/median.c:76:  for (i = 0; i < MEDIAN_FILTER_SIZE; ++i)
	.loc 1 76 0 is_stmt 0 discriminator 1
	cmp	r0, #6	@ i,
	bhi	.L10	@,
@ ../Src/median.c:79:    if (scan->point == pctx->datpoint)
	.loc 1 79 0 is_stmt 1
	ldr	r6, [r2]	@ _10, scan_27->point
	ldr	r5, [r1]	@ _11, pctx_42(D)->datpoint
	cmp	r6, r5	@ _10, _11
	beq	.L17	@,
.L8:
@ ../Src/median.c:84:    if (scan->value < datum)                        /* If datum is larger than scanned value,*/
	.loc 1 84 0
	ldrh	r5, [r2, #4]	@ _12, scan_27->value
	cmp	r5, r4	@ _12, datum
	bcs	.L9	@,
@ ../Src/median.c:86:      pctx->datpoint->point = scanold->point;             /* Chain it in here.  */
	.loc 1 86 0
	ldr	r4, [r1]	@ _13, pctx_42(D)->datpoint
.LVL16:
	ldr	r5, [r3]	@ _14, scanold_28->point
	str	r5, [r4]	@ _14, _13->point
@ ../Src/median.c:87:      scanold->point = pctx->datpoint;                    /* Mark it chained in. */
	.loc 1 87 0
	ldr	r4, [r1]	@ _15, pctx_42(D)->datpoint
	str	r4, [r3]	@ _15, scanold_28->point
.LVL17:
@ ../Src/median.c:88:      datum = STOPPER;
	.loc 1 88 0
	movs	r4, #0	@ datum,
.LVL18:
.L9:
@ ../Src/median.c:92:    median = median->point;                       /* Step median pointer.  */
	.loc 1 92 0
	ldr	ip, [ip]	@ median, median_29->point
.LVL19:
@ ../Src/median.c:93:    if (scan == &(pctx->small))
	.loc 1 93 0
	adds	r5, r1, #4	@ _16, pctx,
	cmp	r5, r2	@ _16, scan
	beq	.L10	@,
.LVL20:
@ ../Src/median.c:98:    scan = scan->point;                           /* step down chain */
	.loc 1 98 0
	ldr	r3, [r2]	@ scanold, scan_27->point
.LVL21:
@ ../Src/median.c:101:    if (scan->point == pctx->datpoint)
	.loc 1 101 0
	ldr	r7, [r1]	@ _18, pctx_42(D)->datpoint
	ldr	r6, [r3]	@ tmp145, scan_54->point
	cmp	r6, r7	@ tmp145, _18
	beq	.L18	@,
.L11:
@ ../Src/median.c:106:    if (scan->value < datum)
	.loc 1 106 0
	ldrh	r6, [r3, #4]	@ _19, scan_54->value
	cmp	r6, r4	@ _19, datum
	bcs	.L12	@,
@ ../Src/median.c:108:      pctx->datpoint->point = scanold->point;
	.loc 1 108 0
	ldr	r4, [r1]	@ _20, pctx_42(D)->datpoint
.LVL22:
	ldr	r6, [r2]	@ _21, scan_27->point
	str	r6, [r4]	@ _21, _20->point
@ ../Src/median.c:109:      scanold->point = pctx->datpoint;
	.loc 1 109 0
	ldr	r4, [r1]	@ _22, pctx_42(D)->datpoint
	str	r4, [r2]	@ _22, scan_27->point
.LVL23:
@ ../Src/median.c:110:      datum = STOPPER;
	.loc 1 110 0
	movs	r4, #0	@ datum,
	b	.L12	@
.LVL24:
.L10:
@ ../Src/median.c:122: }
	.loc 1 122 0
	ldrh	r0, [ip, #4]	@, median_30->value
.LVL25:
	pop	{r4, r5, r6, r7, pc}	@
	.cfi_endproc
.LFE1:
	.size	median_filter, .-median_filter
	.text
.Letext0:
	.file 2 "c:\\ac6\\systemworkbench\\plugins\\fr.ac6.mcu.externaltools.arm-none.win32_1.16.0.201807130628\\tools\\compiler\\arm-none-eabi\\include\\machine\\_default_types.h"
	.file 3 "c:\\ac6\\systemworkbench\\plugins\\fr.ac6.mcu.externaltools.arm-none.win32_1.16.0.201807130628\\tools\\compiler\\arm-none-eabi\\include\\sys\\_stdint.h"
	.file 4 "c:\\ac6\\systemworkbench\\plugins\\fr.ac6.mcu.externaltools.arm-none.win32_1.16.0.201807130628\\tools\\compiler\\arm-none-eabi\\include\\sys\\lock.h"
	.file 5 "c:\\ac6\\systemworkbench\\plugins\\fr.ac6.mcu.externaltools.arm-none.win32_1.16.0.201807130628\\tools\\compiler\\arm-none-eabi\\include\\sys\\_types.h"
	.file 6 "c:\\ac6\\systemworkbench\\plugins\\fr.ac6.mcu.externaltools.arm-none.win32_1.16.0.201807130628\\tools\\compiler\\lib\\gcc\\arm-none-eabi\\7.2.1\\include\\stddef.h"
	.file 7 "c:\\ac6\\systemworkbench\\plugins\\fr.ac6.mcu.externaltools.arm-none.win32_1.16.0.201807130628\\tools\\compiler\\arm-none-eabi\\include\\sys\\reent.h"
	.file 8 "C:/Keil/blsd_cntl_my/blsd_cntl_my/Inc/median.h"
	.file 9 "<built-in>"
	.section	.debug_info,"",%progbits
.Ldebug_info0:
	.4byte	0xa11
	.2byte	0x4
	.4byte	.Ldebug_abbrev0
	.byte	0x4
	.uleb128 0x1
	.4byte	.LASF1050
	.byte	0xc
	.4byte	.LASF1051
	.4byte	.LASF1052
	.4byte	.Ldebug_ranges0+0
	.4byte	0
	.4byte	.Ldebug_line0
	.4byte	.Ldebug_macro0
	.uleb128 0x2
	.byte	0x1
	.byte	0x6
	.4byte	.LASF913
	.uleb128 0x2
	.byte	0x1
	.byte	0x8
	.4byte	.LASF914
	.uleb128 0x2
	.byte	0x2
	.byte	0x5
	.4byte	.LASF915
	.uleb128 0x3
	.4byte	.LASF922
	.byte	0x2
	.byte	0x39
	.4byte	0x49
	.uleb128 0x2
	.byte	0x2
	.byte	0x7
	.4byte	.LASF916
	.uleb128 0x2
	.byte	0x4
	.byte	0x5
	.4byte	.LASF917
	.uleb128 0x2
	.byte	0x4
	.byte	0x7
	.4byte	.LASF918
	.uleb128 0x2
	.byte	0x8
	.byte	0x5
	.4byte	.LASF919
	.uleb128 0x2
	.byte	0x8
	.byte	0x7
	.4byte	.LASF920
	.uleb128 0x4
	.byte	0x4
	.byte	0x5
	.ascii	"int\000"
	.uleb128 0x2
	.byte	0x4
	.byte	0x7
	.4byte	.LASF921
	.uleb128 0x3
	.4byte	.LASF923
	.byte	0x3
	.byte	0x24
	.4byte	0x3e
	.uleb128 0x2
	.byte	0x8
	.byte	0x4
	.4byte	.LASF924
	.uleb128 0x3
	.4byte	.LASF925
	.byte	0x4
	.byte	0x22
	.4byte	0x97
	.uleb128 0x5
	.byte	0x4
	.4byte	0x9d
	.uleb128 0x6
	.4byte	.LASF1031
	.uleb128 0x3
	.4byte	.LASF926
	.byte	0x5
	.byte	0x2c
	.4byte	0x50
	.uleb128 0x3
	.4byte	.LASF927
	.byte	0x5
	.byte	0x72
	.4byte	0x50
	.uleb128 0x7
	.4byte	.LASF928
	.byte	0x6
	.2byte	0x165
	.4byte	0x73
	.uleb128 0x8
	.byte	0x4
	.byte	0x5
	.byte	0xa6
	.4byte	0xe3
	.uleb128 0x9
	.4byte	.LASF929
	.byte	0x5
	.byte	0xa8
	.4byte	0xb8
	.uleb128 0x9
	.4byte	.LASF930
	.byte	0x5
	.byte	0xa9
	.4byte	0xe3
	.byte	0
	.uleb128 0xa
	.4byte	0x30
	.4byte	0xf3
	.uleb128 0xb
	.4byte	0x73
	.byte	0x3
	.byte	0
	.uleb128 0xc
	.byte	0x8
	.byte	0x5
	.byte	0xa3
	.4byte	0x114
	.uleb128 0xd
	.4byte	.LASF931
	.byte	0x5
	.byte	0xa5
	.4byte	0x6c
	.byte	0
	.uleb128 0xd
	.4byte	.LASF932
	.byte	0x5
	.byte	0xaa
	.4byte	0xc4
	.byte	0x4
	.byte	0
	.uleb128 0x3
	.4byte	.LASF933
	.byte	0x5
	.byte	0xab
	.4byte	0xf3
	.uleb128 0x3
	.4byte	.LASF934
	.byte	0x5
	.byte	0xaf
	.4byte	0x8c
	.uleb128 0xe
	.byte	0x4
	.uleb128 0x5
	.byte	0x4
	.4byte	0x132
	.uleb128 0x2
	.byte	0x1
	.byte	0x8
	.4byte	.LASF485
	.uleb128 0xf
	.4byte	0x132
	.uleb128 0x3
	.4byte	.LASF935
	.byte	0x7
	.byte	0x16
	.4byte	0x57
	.uleb128 0x10
	.4byte	.LASF940
	.byte	0x18
	.byte	0x7
	.byte	0x2f
	.4byte	0x19c
	.uleb128 0xd
	.4byte	.LASF936
	.byte	0x7
	.byte	0x31
	.4byte	0x19c
	.byte	0
	.uleb128 0x11
	.ascii	"_k\000"
	.byte	0x7
	.byte	0x32
	.4byte	0x6c
	.byte	0x4
	.uleb128 0xd
	.4byte	.LASF937
	.byte	0x7
	.byte	0x32
	.4byte	0x6c
	.byte	0x8
	.uleb128 0xd
	.4byte	.LASF938
	.byte	0x7
	.byte	0x32
	.4byte	0x6c
	.byte	0xc
	.uleb128 0xd
	.4byte	.LASF939
	.byte	0x7
	.byte	0x32
	.4byte	0x6c
	.byte	0x10
	.uleb128 0x11
	.ascii	"_x\000"
	.byte	0x7
	.byte	0x33
	.4byte	0x1a2
	.byte	0x14
	.byte	0
	.uleb128 0x5
	.byte	0x4
	.4byte	0x149
	.uleb128 0xa
	.4byte	0x13e
	.4byte	0x1b2
	.uleb128 0xb
	.4byte	0x73
	.byte	0
	.byte	0
	.uleb128 0x10
	.4byte	.LASF941
	.byte	0x24
	.byte	0x7
	.byte	0x37
	.4byte	0x22b
	.uleb128 0xd
	.4byte	.LASF942
	.byte	0x7
	.byte	0x39
	.4byte	0x6c
	.byte	0
	.uleb128 0xd
	.4byte	.LASF943
	.byte	0x7
	.byte	0x3a
	.4byte	0x6c
	.byte	0x4
	.uleb128 0xd
	.4byte	.LASF944
	.byte	0x7
	.byte	0x3b
	.4byte	0x6c
	.byte	0x8
	.uleb128 0xd
	.4byte	.LASF945
	.byte	0x7
	.byte	0x3c
	.4byte	0x6c
	.byte	0xc
	.uleb128 0xd
	.4byte	.LASF946
	.byte	0x7
	.byte	0x3d
	.4byte	0x6c
	.byte	0x10
	.uleb128 0xd
	.4byte	.LASF947
	.byte	0x7
	.byte	0x3e
	.4byte	0x6c
	.byte	0x14
	.uleb128 0xd
	.4byte	.LASF948
	.byte	0x7
	.byte	0x3f
	.4byte	0x6c
	.byte	0x18
	.uleb128 0xd
	.4byte	.LASF949
	.byte	0x7
	.byte	0x40
	.4byte	0x6c
	.byte	0x1c
	.uleb128 0xd
	.4byte	.LASF950
	.byte	0x7
	.byte	0x41
	.4byte	0x6c
	.byte	0x20
	.byte	0
	.uleb128 0x12
	.4byte	.LASF951
	.2byte	0x108
	.byte	0x7
	.byte	0x4a
	.4byte	0x26b
	.uleb128 0xd
	.4byte	.LASF952
	.byte	0x7
	.byte	0x4b
	.4byte	0x26b
	.byte	0
	.uleb128 0xd
	.4byte	.LASF953
	.byte	0x7
	.byte	0x4c
	.4byte	0x26b
	.byte	0x80
	.uleb128 0x13
	.4byte	.LASF954
	.byte	0x7
	.byte	0x4e
	.4byte	0x13e
	.2byte	0x100
	.uleb128 0x13
	.4byte	.LASF955
	.byte	0x7
	.byte	0x51
	.4byte	0x13e
	.2byte	0x104
	.byte	0
	.uleb128 0xa
	.4byte	0x12a
	.4byte	0x27b
	.uleb128 0xb
	.4byte	0x73
	.byte	0x1f
	.byte	0
	.uleb128 0x12
	.4byte	.LASF956
	.2byte	0x190
	.byte	0x7
	.byte	0x5d
	.4byte	0x2b9
	.uleb128 0xd
	.4byte	.LASF936
	.byte	0x7
	.byte	0x5e
	.4byte	0x2b9
	.byte	0
	.uleb128 0xd
	.4byte	.LASF957
	.byte	0x7
	.byte	0x5f
	.4byte	0x6c
	.byte	0x4
	.uleb128 0xd
	.4byte	.LASF958
	.byte	0x7
	.byte	0x61
	.4byte	0x2bf
	.byte	0x8
	.uleb128 0xd
	.4byte	.LASF951
	.byte	0x7
	.byte	0x62
	.4byte	0x22b
	.byte	0x88
	.byte	0
	.uleb128 0x5
	.byte	0x4
	.4byte	0x27b
	.uleb128 0xa
	.4byte	0x2cf
	.4byte	0x2cf
	.uleb128 0xb
	.4byte	0x73
	.byte	0x1f
	.byte	0
	.uleb128 0x5
	.byte	0x4
	.4byte	0x2d5
	.uleb128 0x14
	.uleb128 0x10
	.4byte	.LASF959
	.byte	0x8
	.byte	0x7
	.byte	0x75
	.4byte	0x2fb
	.uleb128 0xd
	.4byte	.LASF960
	.byte	0x7
	.byte	0x76
	.4byte	0x2fb
	.byte	0
	.uleb128 0xd
	.4byte	.LASF961
	.byte	0x7
	.byte	0x77
	.4byte	0x6c
	.byte	0x4
	.byte	0
	.uleb128 0x5
	.byte	0x4
	.4byte	0x30
	.uleb128 0x10
	.4byte	.LASF962
	.byte	0x68
	.byte	0x7
	.byte	0xb5
	.4byte	0x42b
	.uleb128 0x11
	.ascii	"_p\000"
	.byte	0x7
	.byte	0xb6
	.4byte	0x2fb
	.byte	0
	.uleb128 0x11
	.ascii	"_r\000"
	.byte	0x7
	.byte	0xb7
	.4byte	0x6c
	.byte	0x4
	.uleb128 0x11
	.ascii	"_w\000"
	.byte	0x7
	.byte	0xb8
	.4byte	0x6c
	.byte	0x8
	.uleb128 0xd
	.4byte	.LASF963
	.byte	0x7
	.byte	0xb9
	.4byte	0x37
	.byte	0xc
	.uleb128 0xd
	.4byte	.LASF964
	.byte	0x7
	.byte	0xba
	.4byte	0x37
	.byte	0xe
	.uleb128 0x11
	.ascii	"_bf\000"
	.byte	0x7
	.byte	0xbb
	.4byte	0x2d6
	.byte	0x10
	.uleb128 0xd
	.4byte	.LASF965
	.byte	0x7
	.byte	0xbc
	.4byte	0x6c
	.byte	0x18
	.uleb128 0xd
	.4byte	.LASF966
	.byte	0x7
	.byte	0xc3
	.4byte	0x12a
	.byte	0x1c
	.uleb128 0xd
	.4byte	.LASF967
	.byte	0x7
	.byte	0xc5
	.4byte	0x586
	.byte	0x20
	.uleb128 0xd
	.4byte	.LASF968
	.byte	0x7
	.byte	0xc7
	.4byte	0x5b0
	.byte	0x24
	.uleb128 0xd
	.4byte	.LASF969
	.byte	0x7
	.byte	0xca
	.4byte	0x5d4
	.byte	0x28
	.uleb128 0xd
	.4byte	.LASF970
	.byte	0x7
	.byte	0xcb
	.4byte	0x5ee
	.byte	0x2c
	.uleb128 0x11
	.ascii	"_ub\000"
	.byte	0x7
	.byte	0xce
	.4byte	0x2d6
	.byte	0x30
	.uleb128 0x11
	.ascii	"_up\000"
	.byte	0x7
	.byte	0xcf
	.4byte	0x2fb
	.byte	0x38
	.uleb128 0x11
	.ascii	"_ur\000"
	.byte	0x7
	.byte	0xd0
	.4byte	0x6c
	.byte	0x3c
	.uleb128 0xd
	.4byte	.LASF971
	.byte	0x7
	.byte	0xd3
	.4byte	0x5f4
	.byte	0x40
	.uleb128 0xd
	.4byte	.LASF972
	.byte	0x7
	.byte	0xd4
	.4byte	0x604
	.byte	0x43
	.uleb128 0x11
	.ascii	"_lb\000"
	.byte	0x7
	.byte	0xd7
	.4byte	0x2d6
	.byte	0x44
	.uleb128 0xd
	.4byte	.LASF973
	.byte	0x7
	.byte	0xda
	.4byte	0x6c
	.byte	0x4c
	.uleb128 0xd
	.4byte	.LASF974
	.byte	0x7
	.byte	0xdb
	.4byte	0xa2
	.byte	0x50
	.uleb128 0xd
	.4byte	.LASF975
	.byte	0x7
	.byte	0xde
	.4byte	0x449
	.byte	0x54
	.uleb128 0xd
	.4byte	.LASF976
	.byte	0x7
	.byte	0xe2
	.4byte	0x11f
	.byte	0x58
	.uleb128 0xd
	.4byte	.LASF977
	.byte	0x7
	.byte	0xe4
	.4byte	0x114
	.byte	0x5c
	.uleb128 0xd
	.4byte	.LASF978
	.byte	0x7
	.byte	0xe5
	.4byte	0x6c
	.byte	0x64
	.byte	0
	.uleb128 0x15
	.4byte	0x6c
	.4byte	0x449
	.uleb128 0x16
	.4byte	0x449
	.uleb128 0x16
	.4byte	0x12a
	.uleb128 0x16
	.4byte	0x12c
	.uleb128 0x16
	.4byte	0x6c
	.byte	0
	.uleb128 0x5
	.byte	0x4
	.4byte	0x454
	.uleb128 0xf
	.4byte	0x449
	.uleb128 0x17
	.4byte	.LASF979
	.2byte	0x428
	.byte	0x7
	.2byte	0x239
	.4byte	0x586
	.uleb128 0x18
	.4byte	.LASF980
	.byte	0x7
	.2byte	0x23b
	.4byte	0x6c
	.byte	0
	.uleb128 0x18
	.4byte	.LASF981
	.byte	0x7
	.2byte	0x240
	.4byte	0x65b
	.byte	0x4
	.uleb128 0x18
	.4byte	.LASF982
	.byte	0x7
	.2byte	0x240
	.4byte	0x65b
	.byte	0x8
	.uleb128 0x18
	.4byte	.LASF983
	.byte	0x7
	.2byte	0x240
	.4byte	0x65b
	.byte	0xc
	.uleb128 0x18
	.4byte	.LASF984
	.byte	0x7
	.2byte	0x242
	.4byte	0x6c
	.byte	0x10
	.uleb128 0x18
	.4byte	.LASF985
	.byte	0x7
	.2byte	0x243
	.4byte	0x83d
	.byte	0x14
	.uleb128 0x18
	.4byte	.LASF986
	.byte	0x7
	.2byte	0x246
	.4byte	0x6c
	.byte	0x30
	.uleb128 0x18
	.4byte	.LASF987
	.byte	0x7
	.2byte	0x247
	.4byte	0x852
	.byte	0x34
	.uleb128 0x18
	.4byte	.LASF988
	.byte	0x7
	.2byte	0x249
	.4byte	0x6c
	.byte	0x38
	.uleb128 0x18
	.4byte	.LASF989
	.byte	0x7
	.2byte	0x24b
	.4byte	0x863
	.byte	0x3c
	.uleb128 0x18
	.4byte	.LASF990
	.byte	0x7
	.2byte	0x24e
	.4byte	0x19c
	.byte	0x40
	.uleb128 0x18
	.4byte	.LASF991
	.byte	0x7
	.2byte	0x24f
	.4byte	0x6c
	.byte	0x44
	.uleb128 0x18
	.4byte	.LASF992
	.byte	0x7
	.2byte	0x250
	.4byte	0x19c
	.byte	0x48
	.uleb128 0x18
	.4byte	.LASF993
	.byte	0x7
	.2byte	0x251
	.4byte	0x869
	.byte	0x4c
	.uleb128 0x18
	.4byte	.LASF994
	.byte	0x7
	.2byte	0x254
	.4byte	0x6c
	.byte	0x50
	.uleb128 0x18
	.4byte	.LASF995
	.byte	0x7
	.2byte	0x255
	.4byte	0x12c
	.byte	0x54
	.uleb128 0x18
	.4byte	.LASF996
	.byte	0x7
	.2byte	0x278
	.4byte	0x81b
	.byte	0x58
	.uleb128 0x19
	.4byte	.LASF956
	.byte	0x7
	.2byte	0x27c
	.4byte	0x2b9
	.2byte	0x148
	.uleb128 0x19
	.4byte	.LASF997
	.byte	0x7
	.2byte	0x27d
	.4byte	0x27b
	.2byte	0x14c
	.uleb128 0x19
	.4byte	.LASF998
	.byte	0x7
	.2byte	0x281
	.4byte	0x87a
	.2byte	0x2dc
	.uleb128 0x19
	.4byte	.LASF999
	.byte	0x7
	.2byte	0x286
	.4byte	0x620
	.2byte	0x2e0
	.uleb128 0x19
	.4byte	.LASF1000
	.byte	0x7
	.2byte	0x288
	.4byte	0x886
	.2byte	0x2ec
	.byte	0
	.uleb128 0x5
	.byte	0x4
	.4byte	0x42b
	.uleb128 0x15
	.4byte	0x6c
	.4byte	0x5aa
	.uleb128 0x16
	.4byte	0x449
	.uleb128 0x16
	.4byte	0x12a
	.uleb128 0x16
	.4byte	0x5aa
	.uleb128 0x16
	.4byte	0x6c
	.byte	0
	.uleb128 0x5
	.byte	0x4
	.4byte	0x139
	.uleb128 0x5
	.byte	0x4
	.4byte	0x58c
	.uleb128 0x15
	.4byte	0xad
	.4byte	0x5d4
	.uleb128 0x16
	.4byte	0x449
	.uleb128 0x16
	.4byte	0x12a
	.uleb128 0x16
	.4byte	0xad
	.uleb128 0x16
	.4byte	0x6c
	.byte	0
	.uleb128 0x5
	.byte	0x4
	.4byte	0x5b6
	.uleb128 0x15
	.4byte	0x6c
	.4byte	0x5ee
	.uleb128 0x16
	.4byte	0x449
	.uleb128 0x16
	.4byte	0x12a
	.byte	0
	.uleb128 0x5
	.byte	0x4
	.4byte	0x5da
	.uleb128 0xa
	.4byte	0x30
	.4byte	0x604
	.uleb128 0xb
	.4byte	0x73
	.byte	0x2
	.byte	0
	.uleb128 0xa
	.4byte	0x30
	.4byte	0x614
	.uleb128 0xb
	.4byte	0x73
	.byte	0
	.byte	0
	.uleb128 0x7
	.4byte	.LASF1001
	.byte	0x7
	.2byte	0x11f
	.4byte	0x301
	.uleb128 0x1a
	.4byte	.LASF1002
	.byte	0xc
	.byte	0x7
	.2byte	0x123
	.4byte	0x655
	.uleb128 0x18
	.4byte	.LASF936
	.byte	0x7
	.2byte	0x125
	.4byte	0x655
	.byte	0
	.uleb128 0x18
	.4byte	.LASF1003
	.byte	0x7
	.2byte	0x126
	.4byte	0x6c
	.byte	0x4
	.uleb128 0x18
	.4byte	.LASF1004
	.byte	0x7
	.2byte	0x127
	.4byte	0x65b
	.byte	0x8
	.byte	0
	.uleb128 0x5
	.byte	0x4
	.4byte	0x620
	.uleb128 0x5
	.byte	0x4
	.4byte	0x614
	.uleb128 0x1a
	.4byte	.LASF1005
	.byte	0xe
	.byte	0x7
	.2byte	0x13f
	.4byte	0x696
	.uleb128 0x18
	.4byte	.LASF1006
	.byte	0x7
	.2byte	0x140
	.4byte	0x696
	.byte	0
	.uleb128 0x18
	.4byte	.LASF1007
	.byte	0x7
	.2byte	0x141
	.4byte	0x696
	.byte	0x6
	.uleb128 0x18
	.4byte	.LASF1008
	.byte	0x7
	.2byte	0x142
	.4byte	0x49
	.byte	0xc
	.byte	0
	.uleb128 0xa
	.4byte	0x49
	.4byte	0x6a6
	.uleb128 0xb
	.4byte	0x73
	.byte	0x2
	.byte	0
	.uleb128 0x1b
	.byte	0xd0
	.byte	0x7
	.2byte	0x259
	.4byte	0x7a7
	.uleb128 0x18
	.4byte	.LASF1009
	.byte	0x7
	.2byte	0x25b
	.4byte	0x73
	.byte	0
	.uleb128 0x18
	.4byte	.LASF1010
	.byte	0x7
	.2byte	0x25c
	.4byte	0x12c
	.byte	0x4
	.uleb128 0x18
	.4byte	.LASF1011
	.byte	0x7
	.2byte	0x25d
	.4byte	0x7a7
	.byte	0x8
	.uleb128 0x18
	.4byte	.LASF1012
	.byte	0x7
	.2byte	0x25e
	.4byte	0x1b2
	.byte	0x24
	.uleb128 0x18
	.4byte	.LASF1013
	.byte	0x7
	.2byte	0x25f
	.4byte	0x6c
	.byte	0x48
	.uleb128 0x18
	.4byte	.LASF1014
	.byte	0x7
	.2byte	0x260
	.4byte	0x65
	.byte	0x50
	.uleb128 0x18
	.4byte	.LASF1015
	.byte	0x7
	.2byte	0x261
	.4byte	0x661
	.byte	0x58
	.uleb128 0x18
	.4byte	.LASF1016
	.byte	0x7
	.2byte	0x262
	.4byte	0x114
	.byte	0x68
	.uleb128 0x18
	.4byte	.LASF1017
	.byte	0x7
	.2byte	0x263
	.4byte	0x114
	.byte	0x70
	.uleb128 0x18
	.4byte	.LASF1018
	.byte	0x7
	.2byte	0x264
	.4byte	0x114
	.byte	0x78
	.uleb128 0x18
	.4byte	.LASF1019
	.byte	0x7
	.2byte	0x265
	.4byte	0x7b7
	.byte	0x80
	.uleb128 0x18
	.4byte	.LASF1020
	.byte	0x7
	.2byte	0x266
	.4byte	0x7c7
	.byte	0x88
	.uleb128 0x18
	.4byte	.LASF1021
	.byte	0x7
	.2byte	0x267
	.4byte	0x6c
	.byte	0xa0
	.uleb128 0x18
	.4byte	.LASF1022
	.byte	0x7
	.2byte	0x268
	.4byte	0x114
	.byte	0xa4
	.uleb128 0x18
	.4byte	.LASF1023
	.byte	0x7
	.2byte	0x269
	.4byte	0x114
	.byte	0xac
	.uleb128 0x18
	.4byte	.LASF1024
	.byte	0x7
	.2byte	0x26a
	.4byte	0x114
	.byte	0xb4
	.uleb128 0x18
	.4byte	.LASF1025
	.byte	0x7
	.2byte	0x26b
	.4byte	0x114
	.byte	0xbc
	.uleb128 0x18
	.4byte	.LASF1026
	.byte	0x7
	.2byte	0x26c
	.4byte	0x114
	.byte	0xc4
	.uleb128 0x18
	.4byte	.LASF1027
	.byte	0x7
	.2byte	0x26d
	.4byte	0x6c
	.byte	0xcc
	.byte	0
	.uleb128 0xa
	.4byte	0x132
	.4byte	0x7b7
	.uleb128 0xb
	.4byte	0x73
	.byte	0x19
	.byte	0
	.uleb128 0xa
	.4byte	0x132
	.4byte	0x7c7
	.uleb128 0xb
	.4byte	0x73
	.byte	0x7
	.byte	0
	.uleb128 0xa
	.4byte	0x132
	.4byte	0x7d7
	.uleb128 0xb
	.4byte	0x73
	.byte	0x17
	.byte	0
	.uleb128 0x1b
	.byte	0xf0
	.byte	0x7
	.2byte	0x272
	.4byte	0x7fb
	.uleb128 0x18
	.4byte	.LASF1028
	.byte	0x7
	.2byte	0x275
	.4byte	0x7fb
	.byte	0
	.uleb128 0x18
	.4byte	.LASF1029
	.byte	0x7
	.2byte	0x276
	.4byte	0x80b
	.byte	0x78
	.byte	0
	.uleb128 0xa
	.4byte	0x2fb
	.4byte	0x80b
	.uleb128 0xb
	.4byte	0x73
	.byte	0x1d
	.byte	0
	.uleb128 0xa
	.4byte	0x73
	.4byte	0x81b
	.uleb128 0xb
	.4byte	0x73
	.byte	0x1d
	.byte	0
	.uleb128 0x1c
	.byte	0xf0
	.byte	0x7
	.2byte	0x257
	.4byte	0x83d
	.uleb128 0x1d
	.4byte	.LASF979
	.byte	0x7
	.2byte	0x26e
	.4byte	0x6a6
	.uleb128 0x1d
	.4byte	.LASF1030
	.byte	0x7
	.2byte	0x277
	.4byte	0x7d7
	.byte	0
	.uleb128 0xa
	.4byte	0x132
	.4byte	0x84d
	.uleb128 0xb
	.4byte	0x73
	.byte	0x18
	.byte	0
	.uleb128 0x6
	.4byte	.LASF1032
	.uleb128 0x5
	.byte	0x4
	.4byte	0x84d
	.uleb128 0x1e
	.4byte	0x863
	.uleb128 0x16
	.4byte	0x449
	.byte	0
	.uleb128 0x5
	.byte	0x4
	.4byte	0x858
	.uleb128 0x5
	.byte	0x4
	.4byte	0x19c
	.uleb128 0x1e
	.4byte	0x87a
	.uleb128 0x16
	.4byte	0x6c
	.byte	0
	.uleb128 0x5
	.byte	0x4
	.4byte	0x880
	.uleb128 0x5
	.byte	0x4
	.4byte	0x86f
	.uleb128 0xa
	.4byte	0x614
	.4byte	0x896
	.uleb128 0xb
	.4byte	0x73
	.byte	0x2
	.byte	0
	.uleb128 0x1f
	.4byte	.LASF1033
	.byte	0x7
	.2byte	0x307
	.4byte	0x449
	.uleb128 0x1f
	.4byte	.LASF1034
	.byte	0x7
	.2byte	0x308
	.4byte	0x44f
	.uleb128 0x10
	.4byte	.LASF1035
	.byte	0x8
	.byte	0x8
	.byte	0x1b
	.4byte	0x8d3
	.uleb128 0xd
	.4byte	.LASF1036
	.byte	0x8
	.byte	0x1d
	.4byte	0x8d3
	.byte	0
	.uleb128 0xd
	.4byte	.LASF1037
	.byte	0x8
	.byte	0x1e
	.4byte	0x7a
	.byte	0x4
	.byte	0
	.uleb128 0x5
	.byte	0x4
	.4byte	0x8ae
	.uleb128 0x3
	.4byte	.LASF1038
	.byte	0x8
	.byte	0x1f
	.4byte	0x8ae
	.uleb128 0x10
	.4byte	.LASF1039
	.byte	0x4c
	.byte	0x8
	.byte	0x22
	.4byte	0x921
	.uleb128 0xd
	.4byte	.LASF1040
	.byte	0x8
	.byte	0x24
	.4byte	0x921
	.byte	0
	.uleb128 0xd
	.4byte	.LASF1041
	.byte	0x8
	.byte	0x25
	.4byte	0x8d9
	.byte	0x4
	.uleb128 0x11
	.ascii	"big\000"
	.byte	0x8
	.byte	0x26
	.4byte	0x8d9
	.byte	0xc
	.uleb128 0xd
	.4byte	.LASF1042
	.byte	0x8
	.byte	0x27
	.4byte	0x927
	.byte	0x14
	.byte	0
	.uleb128 0x5
	.byte	0x4
	.4byte	0x8d9
	.uleb128 0xa
	.4byte	0x8d9
	.4byte	0x937
	.uleb128 0xb
	.4byte	0x73
	.byte	0x6
	.byte	0
	.uleb128 0x3
	.4byte	.LASF1043
	.byte	0x8
	.byte	0x28
	.4byte	0x8e4
	.uleb128 0x20
	.4byte	.LASF1053
	.byte	0x1
	.byte	0x2a
	.4byte	0x7a
	.4byte	.LFB1
	.4byte	.LFE1-.LFB1
	.uleb128 0x1
	.byte	0x9c
	.4byte	0x9bf
	.uleb128 0x21
	.4byte	.LASF1044
	.byte	0x1
	.byte	0x2a
	.4byte	0x7a
	.4byte	.LLST1
	.uleb128 0x22
	.4byte	.LASF1045
	.byte	0x1
	.byte	0x2a
	.4byte	0x9bf
	.uleb128 0x1
	.byte	0x51
	.uleb128 0x23
	.4byte	.LASF1046
	.byte	0x1
	.byte	0x2c
	.4byte	0x921
	.uleb128 0x1
	.byte	0x5e
	.uleb128 0x24
	.4byte	.LASF1047
	.byte	0x1
	.byte	0x2d
	.4byte	0x921
	.4byte	.LLST2
	.uleb128 0x24
	.4byte	.LASF1048
	.byte	0x1
	.byte	0x2e
	.4byte	0x921
	.4byte	.LLST3
	.uleb128 0x24
	.4byte	.LASF1049
	.byte	0x1
	.byte	0x2f
	.4byte	0x921
	.4byte	.LLST4
	.uleb128 0x25
	.ascii	"i\000"
	.byte	0x1
	.byte	0x30
	.4byte	0x7a
	.4byte	.LLST5
	.byte	0
	.uleb128 0x5
	.byte	0x4
	.4byte	0x937
	.uleb128 0x26
	.4byte	.LASF1054
	.byte	0x1
	.byte	0x1b
	.4byte	.LFB0
	.4byte	.LFE0-.LFB0
	.uleb128 0x1
	.byte	0x9c
	.4byte	0xa05
	.uleb128 0x21
	.4byte	.LASF1045
	.byte	0x1
	.byte	0x1b
	.4byte	0x9bf
	.4byte	.LLST0
	.uleb128 0x27
	.4byte	.LVL2
	.4byte	0xa05
	.uleb128 0x28
	.uleb128 0x1
	.byte	0x50
	.uleb128 0x2
	.byte	0x75
	.sleb128 0
	.uleb128 0x28
	.uleb128 0x1
	.byte	0x51
	.uleb128 0x1
	.byte	0x30
	.uleb128 0x28
	.uleb128 0x1
	.byte	0x52
	.uleb128 0x2
	.byte	0x8
	.byte	0x38
	.byte	0
	.byte	0
	.uleb128 0x29
	.4byte	.LASF1055
	.4byte	.LASF1056
	.byte	0x9
	.byte	0
	.4byte	.LASF1055
	.byte	0
	.section	.debug_abbrev,"",%progbits
.Ldebug_abbrev0:
	.uleb128 0x1
	.uleb128 0x11
	.byte	0x1
	.uleb128 0x25
	.uleb128 0xe
	.uleb128 0x13
	.uleb128 0xb
	.uleb128 0x3
	.uleb128 0xe
	.uleb128 0x1b
	.uleb128 0xe
	.uleb128 0x55
	.uleb128 0x17
	.uleb128 0x11
	.uleb128 0x1
	.uleb128 0x10
	.uleb128 0x17
	.uleb128 0x2119
	.uleb128 0x17
	.byte	0
	.byte	0
	.uleb128 0x2
	.uleb128 0x24
	.byte	0
	.uleb128 0xb
	.uleb128 0xb
	.uleb128 0x3e
	.uleb128 0xb
	.uleb128 0x3
	.uleb128 0xe
	.byte	0
	.byte	0
	.uleb128 0x3
	.uleb128 0x16
	.byte	0
	.uleb128 0x3
	.uleb128 0xe
	.uleb128 0x3a
	.uleb128 0xb
	.uleb128 0x3b
	.uleb128 0xb
	.uleb128 0x49
	.uleb128 0x13
	.byte	0
	.byte	0
	.uleb128 0x4
	.uleb128 0x24
	.byte	0
	.uleb128 0xb
	.uleb128 0xb
	.uleb128 0x3e
	.uleb128 0xb
	.uleb128 0x3
	.uleb128 0x8
	.byte	0
	.byte	0
	.uleb128 0x5
	.uleb128 0xf
	.byte	0
	.uleb128 0xb
	.uleb128 0xb
	.uleb128 0x49
	.uleb128 0x13
	.byte	0
	.byte	0
	.uleb128 0x6
	.uleb128 0x13
	.byte	0
	.uleb128 0x3
	.uleb128 0xe
	.uleb128 0x3c
	.uleb128 0x19
	.byte	0
	.byte	0
	.uleb128 0x7
	.uleb128 0x16
	.byte	0
	.uleb128 0x3
	.uleb128 0xe
	.uleb128 0x3a
	.uleb128 0xb
	.uleb128 0x3b
	.uleb128 0x5
	.uleb128 0x49
	.uleb128 0x13
	.byte	0
	.byte	0
	.uleb128 0x8
	.uleb128 0x17
	.byte	0x1
	.uleb128 0xb
	.uleb128 0xb
	.uleb128 0x3a
	.uleb128 0xb
	.uleb128 0x3b
	.uleb128 0xb
	.uleb128 0x1
	.uleb128 0x13
	.byte	0
	.byte	0
	.uleb128 0x9
	.uleb128 0xd
	.byte	0
	.uleb128 0x3
	.uleb128 0xe
	.uleb128 0x3a
	.uleb128 0xb
	.uleb128 0x3b
	.uleb128 0xb
	.uleb128 0x49
	.uleb128 0x13
	.byte	0
	.byte	0
	.uleb128 0xa
	.uleb128 0x1
	.byte	0x1
	.uleb128 0x49
	.uleb128 0x13
	.uleb128 0x1
	.uleb128 0x13
	.byte	0
	.byte	0
	.uleb128 0xb
	.uleb128 0x21
	.byte	0
	.uleb128 0x49
	.uleb128 0x13
	.uleb128 0x2f
	.uleb128 0xb
	.byte	0
	.byte	0
	.uleb128 0xc
	.uleb128 0x13
	.byte	0x1
	.uleb128 0xb
	.uleb128 0xb
	.uleb128 0x3a
	.uleb128 0xb
	.uleb128 0x3b
	.uleb128 0xb
	.uleb128 0x1
	.uleb128 0x13
	.byte	0
	.byte	0
	.uleb128 0xd
	.uleb128 0xd
	.byte	0
	.uleb128 0x3
	.uleb128 0xe
	.uleb128 0x3a
	.uleb128 0xb
	.uleb128 0x3b
	.uleb128 0xb
	.uleb128 0x49
	.uleb128 0x13
	.uleb128 0x38
	.uleb128 0xb
	.byte	0
	.byte	0
	.uleb128 0xe
	.uleb128 0xf
	.byte	0
	.uleb128 0xb
	.uleb128 0xb
	.byte	0
	.byte	0
	.uleb128 0xf
	.uleb128 0x26
	.byte	0
	.uleb128 0x49
	.uleb128 0x13
	.byte	0
	.byte	0
	.uleb128 0x10
	.uleb128 0x13
	.byte	0x1
	.uleb128 0x3
	.uleb128 0xe
	.uleb128 0xb
	.uleb128 0xb
	.uleb128 0x3a
	.uleb128 0xb
	.uleb128 0x3b
	.uleb128 0xb
	.uleb128 0x1
	.uleb128 0x13
	.byte	0
	.byte	0
	.uleb128 0x11
	.uleb128 0xd
	.byte	0
	.uleb128 0x3
	.uleb128 0x8
	.uleb128 0x3a
	.uleb128 0xb
	.uleb128 0x3b
	.uleb128 0xb
	.uleb128 0x49
	.uleb128 0x13
	.uleb128 0x38
	.uleb128 0xb
	.byte	0
	.byte	0
	.uleb128 0x12
	.uleb128 0x13
	.byte	0x1
	.uleb128 0x3
	.uleb128 0xe
	.uleb128 0xb
	.uleb128 0x5
	.uleb128 0x3a
	.uleb128 0xb
	.uleb128 0x3b
	.uleb128 0xb
	.uleb128 0x1
	.uleb128 0x13
	.byte	0
	.byte	0
	.uleb128 0x13
	.uleb128 0xd
	.byte	0
	.uleb128 0x3
	.uleb128 0xe
	.uleb128 0x3a
	.uleb128 0xb
	.uleb128 0x3b
	.uleb128 0xb
	.uleb128 0x49
	.uleb128 0x13
	.uleb128 0x38
	.uleb128 0x5
	.byte	0
	.byte	0
	.uleb128 0x14
	.uleb128 0x15
	.byte	0
	.uleb128 0x27
	.uleb128 0x19
	.byte	0
	.byte	0
	.uleb128 0x15
	.uleb128 0x15
	.byte	0x1
	.uleb128 0x27
	.uleb128 0x19
	.uleb128 0x49
	.uleb128 0x13
	.uleb128 0x1
	.uleb128 0x13
	.byte	0
	.byte	0
	.uleb128 0x16
	.uleb128 0x5
	.byte	0
	.uleb128 0x49
	.uleb128 0x13
	.byte	0
	.byte	0
	.uleb128 0x17
	.uleb128 0x13
	.byte	0x1
	.uleb128 0x3
	.uleb128 0xe
	.uleb128 0xb
	.uleb128 0x5
	.uleb128 0x3a
	.uleb128 0xb
	.uleb128 0x3b
	.uleb128 0x5
	.uleb128 0x1
	.uleb128 0x13
	.byte	0
	.byte	0
	.uleb128 0x18
	.uleb128 0xd
	.byte	0
	.uleb128 0x3
	.uleb128 0xe
	.uleb128 0x3a
	.uleb128 0xb
	.uleb128 0x3b
	.uleb128 0x5
	.uleb128 0x49
	.uleb128 0x13
	.uleb128 0x38
	.uleb128 0xb
	.byte	0
	.byte	0
	.uleb128 0x19
	.uleb128 0xd
	.byte	0
	.uleb128 0x3
	.uleb128 0xe
	.uleb128 0x3a
	.uleb128 0xb
	.uleb128 0x3b
	.uleb128 0x5
	.uleb128 0x49
	.uleb128 0x13
	.uleb128 0x38
	.uleb128 0x5
	.byte	0
	.byte	0
	.uleb128 0x1a
	.uleb128 0x13
	.byte	0x1
	.uleb128 0x3
	.uleb128 0xe
	.uleb128 0xb
	.uleb128 0xb
	.uleb128 0x3a
	.uleb128 0xb
	.uleb128 0x3b
	.uleb128 0x5
	.uleb128 0x1
	.uleb128 0x13
	.byte	0
	.byte	0
	.uleb128 0x1b
	.uleb128 0x13
	.byte	0x1
	.uleb128 0xb
	.uleb128 0xb
	.uleb128 0x3a
	.uleb128 0xb
	.uleb128 0x3b
	.uleb128 0x5
	.uleb128 0x1
	.uleb128 0x13
	.byte	0
	.byte	0
	.uleb128 0x1c
	.uleb128 0x17
	.byte	0x1
	.uleb128 0xb
	.uleb128 0xb
	.uleb128 0x3a
	.uleb128 0xb
	.uleb128 0x3b
	.uleb128 0x5
	.uleb128 0x1
	.uleb128 0x13
	.byte	0
	.byte	0
	.uleb128 0x1d
	.uleb128 0xd
	.byte	0
	.uleb128 0x3
	.uleb128 0xe
	.uleb128 0x3a
	.uleb128 0xb
	.uleb128 0x3b
	.uleb128 0x5
	.uleb128 0x49
	.uleb128 0x13
	.byte	0
	.byte	0
	.uleb128 0x1e
	.uleb128 0x15
	.byte	0x1
	.uleb128 0x27
	.uleb128 0x19
	.uleb128 0x1
	.uleb128 0x13
	.byte	0
	.byte	0
	.uleb128 0x1f
	.uleb128 0x34
	.byte	0
	.uleb128 0x3
	.uleb128 0xe
	.uleb128 0x3a
	.uleb128 0xb
	.uleb128 0x3b
	.uleb128 0x5
	.uleb128 0x49
	.uleb128 0x13
	.uleb128 0x3f
	.uleb128 0x19
	.uleb128 0x3c
	.uleb128 0x19
	.byte	0
	.byte	0
	.uleb128 0x20
	.uleb128 0x2e
	.byte	0x1
	.uleb128 0x3f
	.uleb128 0x19
	.uleb128 0x3
	.uleb128 0xe
	.uleb128 0x3a
	.uleb128 0xb
	.uleb128 0x3b
	.uleb128 0xb
	.uleb128 0x27
	.uleb128 0x19
	.uleb128 0x49
	.uleb128 0x13
	.uleb128 0x11
	.uleb128 0x1
	.uleb128 0x12
	.uleb128 0x6
	.uleb128 0x40
	.uleb128 0x18
	.uleb128 0x2117
	.uleb128 0x19
	.uleb128 0x1
	.uleb128 0x13
	.byte	0
	.byte	0
	.uleb128 0x21
	.uleb128 0x5
	.byte	0
	.uleb128 0x3
	.uleb128 0xe
	.uleb128 0x3a
	.uleb128 0xb
	.uleb128 0x3b
	.uleb128 0xb
	.uleb128 0x49
	.uleb128 0x13
	.uleb128 0x2
	.uleb128 0x17
	.byte	0
	.byte	0
	.uleb128 0x22
	.uleb128 0x5
	.byte	0
	.uleb128 0x3
	.uleb128 0xe
	.uleb128 0x3a
	.uleb128 0xb
	.uleb128 0x3b
	.uleb128 0xb
	.uleb128 0x49
	.uleb128 0x13
	.uleb128 0x2
	.uleb128 0x18
	.byte	0
	.byte	0
	.uleb128 0x23
	.uleb128 0x34
	.byte	0
	.uleb128 0x3
	.uleb128 0xe
	.uleb128 0x3a
	.uleb128 0xb
	.uleb128 0x3b
	.uleb128 0xb
	.uleb128 0x49
	.uleb128 0x13
	.uleb128 0x2
	.uleb128 0x18
	.byte	0
	.byte	0
	.uleb128 0x24
	.uleb128 0x34
	.byte	0
	.uleb128 0x3
	.uleb128 0xe
	.uleb128 0x3a
	.uleb128 0xb
	.uleb128 0x3b
	.uleb128 0xb
	.uleb128 0x49
	.uleb128 0x13
	.uleb128 0x2
	.uleb128 0x17
	.byte	0
	.byte	0
	.uleb128 0x25
	.uleb128 0x34
	.byte	0
	.uleb128 0x3
	.uleb128 0x8
	.uleb128 0x3a
	.uleb128 0xb
	.uleb128 0x3b
	.uleb128 0xb
	.uleb128 0x49
	.uleb128 0x13
	.uleb128 0x2
	.uleb128 0x17
	.byte	0
	.byte	0
	.uleb128 0x26
	.uleb128 0x2e
	.byte	0x1
	.uleb128 0x3f
	.uleb128 0x19
	.uleb128 0x3
	.uleb128 0xe
	.uleb128 0x3a
	.uleb128 0xb
	.uleb128 0x3b
	.uleb128 0xb
	.uleb128 0x27
	.uleb128 0x19
	.uleb128 0x11
	.uleb128 0x1
	.uleb128 0x12
	.uleb128 0x6
	.uleb128 0x40
	.uleb128 0x18
	.uleb128 0x2117
	.uleb128 0x19
	.uleb128 0x1
	.uleb128 0x13
	.byte	0
	.byte	0
	.uleb128 0x27
	.uleb128 0x4109
	.byte	0x1
	.uleb128 0x11
	.uleb128 0x1
	.uleb128 0x31
	.uleb128 0x13
	.byte	0
	.byte	0
	.uleb128 0x28
	.uleb128 0x410a
	.byte	0
	.uleb128 0x2
	.uleb128 0x18
	.uleb128 0x2111
	.uleb128 0x18
	.byte	0
	.byte	0
	.uleb128 0x29
	.uleb128 0x2e
	.byte	0
	.uleb128 0x3f
	.uleb128 0x19
	.uleb128 0x3c
	.uleb128 0x19
	.uleb128 0x6e
	.uleb128 0xe
	.uleb128 0x3
	.uleb128 0xe
	.uleb128 0x3a
	.uleb128 0xb
	.uleb128 0x3b
	.uleb128 0xb
	.uleb128 0x6e
	.uleb128 0xe
	.byte	0
	.byte	0
	.byte	0
	.section	.debug_loc,"",%progbits
.Ldebug_loc0:
.LLST1:
	.4byte	.LVL3
	.4byte	.LVL4
	.2byte	0x1
	.byte	0x50
	.4byte	.LVL4
	.4byte	.LVL16
	.2byte	0x1
	.byte	0x54
	.4byte	.LVL17
	.4byte	.LVL18
	.2byte	0x2
	.byte	0x30
	.byte	0x9f
	.4byte	.LVL18
	.4byte	.LVL22
	.2byte	0x1
	.byte	0x54
	.4byte	.LVL23
	.4byte	.LVL24
	.2byte	0x2
	.byte	0x30
	.byte	0x9f
	.4byte	.LVL24
	.4byte	.LFE1
	.2byte	0x1
	.byte	0x54
	.4byte	0
	.4byte	0
.LLST2:
	.4byte	.LVL5
	.4byte	.LVL7
	.2byte	0x1
	.byte	0x53
	.4byte	.LVL7
	.4byte	.LVL8
	.2byte	0x1
	.byte	0x52
	.4byte	.LVL8
	.4byte	.LVL9
	.2byte	0x1
	.byte	0x53
	.4byte	.LVL9
	.4byte	.LVL10
	.2byte	0x1
	.byte	0x52
	.4byte	.LVL10
	.4byte	.LVL13
	.2byte	0x1
	.byte	0x53
	.4byte	.LVL13
	.4byte	.LVL21
	.2byte	0x1
	.byte	0x52
	.4byte	.LVL21
	.4byte	.LVL24
	.2byte	0x1
	.byte	0x53
	.4byte	0
	.4byte	0
.LLST3:
	.4byte	.LVL5
	.4byte	.LVL6
	.2byte	0x2
	.byte	0x30
	.byte	0x9f
	.4byte	.LVL6
	.4byte	.LVL8
	.2byte	0x1
	.byte	0x53
	.4byte	.LVL8
	.4byte	.LVL9
	.2byte	0x2
	.byte	0x30
	.byte	0x9f
	.4byte	.LVL9
	.4byte	.LVL10
	.2byte	0x1
	.byte	0x53
	.4byte	.LVL10
	.4byte	.LVL12
	.2byte	0x1
	.byte	0x52
	.4byte	.LVL12
	.4byte	.LVL20
	.2byte	0x1
	.byte	0x53
	.4byte	.LVL20
	.4byte	.LVL24
	.2byte	0x1
	.byte	0x52
	.4byte	0
	.4byte	0
.LLST4:
	.4byte	.LVL5
	.4byte	.LVL9
	.2byte	0x1
	.byte	0x53
	.4byte	.LVL9
	.4byte	.LFE1
	.2byte	0x1
	.byte	0x5c
	.4byte	0
	.4byte	0
.LLST5:
	.4byte	.LVL7
	.4byte	.LVL8
	.2byte	0x2
	.byte	0x30
	.byte	0x9f
	.4byte	.LVL9
	.4byte	.LVL14
	.2byte	0x1
	.byte	0x50
	.4byte	.LVL15
	.4byte	.LVL25
	.2byte	0x1
	.byte	0x50
	.4byte	0
	.4byte	0
.LLST0:
	.4byte	.LVL0
	.4byte	.LVL1
	.2byte	0x1
	.byte	0x50
	.4byte	.LVL1
	.4byte	.LFE0
	.2byte	0x1
	.byte	0x54
	.4byte	0
	.4byte	0
	.section	.debug_aranges,"",%progbits
	.4byte	0x24
	.2byte	0x2
	.4byte	.Ldebug_info0
	.byte	0x4
	.byte	0
	.2byte	0
	.2byte	0
	.4byte	.LFB0
	.4byte	.LFE0-.LFB0
	.4byte	.LFB1
	.4byte	.LFE1-.LFB1
	.4byte	0
	.4byte	0
	.section	.debug_ranges,"",%progbits
.Ldebug_ranges0:
	.4byte	.LFB0
	.4byte	.LFE0
	.4byte	.LFB1
	.4byte	.LFE1
	.4byte	0
	.4byte	0
	.section	.debug_macro,"",%progbits
.Ldebug_macro0:
	.2byte	0x4
	.byte	0x2
	.4byte	.Ldebug_line0
	.byte	0x3
	.uleb128 0
	.uleb128 0x1
	.byte	0x5
	.uleb128 0x1
	.4byte	.LASF0
	.byte	0x5
	.uleb128 0x2
	.4byte	.LASF1
	.byte	0x5
	.uleb128 0x3
	.4byte	.LASF2
	.byte	0x5
	.uleb128 0x4
	.4byte	.LASF3
	.byte	0x5
	.uleb128 0x5
	.4byte	.LASF4
	.byte	0x5
	.uleb128 0x6
	.4byte	.LASF5
	.byte	0x5
	.uleb128 0x7
	.4byte	.LASF6
	.byte	0x5
	.uleb128 0x8
	.4byte	.LASF7
	.byte	0x5
	.uleb128 0x9
	.4byte	.LASF8
	.byte	0x5
	.uleb128 0xa
	.4byte	.LASF9
	.byte	0x5
	.uleb128 0xb
	.4byte	.LASF10
	.byte	0x5
	.uleb128 0xc
	.4byte	.LASF11
	.byte	0x5
	.uleb128 0xd
	.4byte	.LASF12
	.byte	0x5
	.uleb128 0xe
	.4byte	.LASF13
	.byte	0x5
	.uleb128 0xf
	.4byte	.LASF14
	.byte	0x5
	.uleb128 0x10
	.4byte	.LASF15
	.byte	0x5
	.uleb128 0x11
	.4byte	.LASF16
	.byte	0x5
	.uleb128 0x12
	.4byte	.LASF17
	.byte	0x5
	.uleb128 0x13
	.4byte	.LASF18
	.byte	0x5
	.uleb128 0x14
	.4byte	.LASF19
	.byte	0x5
	.uleb128 0x15
	.4byte	.LASF20
	.byte	0x5
	.uleb128 0x16
	.4byte	.LASF21
	.byte	0x5
	.uleb128 0x17
	.4byte	.LASF22
	.byte	0x5
	.uleb128 0x18
	.4byte	.LASF23
	.byte	0x5
	.uleb128 0x19
	.4byte	.LASF24
	.byte	0x5
	.uleb128 0x1a
	.4byte	.LASF25
	.byte	0x5
	.uleb128 0x1b
	.4byte	.LASF26
	.byte	0x5
	.uleb128 0x1c
	.4byte	.LASF27
	.byte	0x5
	.uleb128 0x1d
	.4byte	.LASF28
	.byte	0x5
	.uleb128 0x1e
	.4byte	.LASF29
	.byte	0x5
	.uleb128 0x1f
	.4byte	.LASF30
	.byte	0x5
	.uleb128 0x20
	.4byte	.LASF31
	.byte	0x5
	.uleb128 0x21
	.4byte	.LASF32
	.byte	0x5
	.uleb128 0x22
	.4byte	.LASF33
	.byte	0x5
	.uleb128 0x23
	.4byte	.LASF34
	.byte	0x5
	.uleb128 0x24
	.4byte	.LASF35
	.byte	0x5
	.uleb128 0x25
	.4byte	.LASF36
	.byte	0x5
	.uleb128 0x26
	.4byte	.LASF37
	.byte	0x5
	.uleb128 0x27
	.4byte	.LASF38
	.byte	0x5
	.uleb128 0x28
	.4byte	.LASF39
	.byte	0x5
	.uleb128 0x29
	.4byte	.LASF40
	.byte	0x5
	.uleb128 0x2a
	.4byte	.LASF41
	.byte	0x5
	.uleb128 0x2b
	.4byte	.LASF42
	.byte	0x5
	.uleb128 0x2c
	.4byte	.LASF43
	.byte	0x5
	.uleb128 0x2d
	.4byte	.LASF44
	.byte	0x5
	.uleb128 0x2e
	.4byte	.LASF45
	.byte	0x5
	.uleb128 0x2f
	.4byte	.LASF46
	.byte	0x5
	.uleb128 0x30
	.4byte	.LASF47
	.byte	0x5
	.uleb128 0x31
	.4byte	.LASF48
	.byte	0x5
	.uleb128 0x32
	.4byte	.LASF49
	.byte	0x5
	.uleb128 0x33
	.4byte	.LASF50
	.byte	0x5
	.uleb128 0x34
	.4byte	.LASF51
	.byte	0x5
	.uleb128 0x35
	.4byte	.LASF52
	.byte	0x5
	.uleb128 0x36
	.4byte	.LASF53
	.byte	0x5
	.uleb128 0x37
	.4byte	.LASF54
	.byte	0x5
	.uleb128 0x38
	.4byte	.LASF55
	.byte	0x5
	.uleb128 0x39
	.4byte	.LASF56
	.byte	0x5
	.uleb128 0x3a
	.4byte	.LASF57
	.byte	0x5
	.uleb128 0x3b
	.4byte	.LASF58
	.byte	0x5
	.uleb128 0x3c
	.4byte	.LASF59
	.byte	0x5
	.uleb128 0x3d
	.4byte	.LASF60
	.byte	0x5
	.uleb128 0x3e
	.4byte	.LASF61
	.byte	0x5
	.uleb128 0x3f
	.4byte	.LASF62
	.byte	0x5
	.uleb128 0x40
	.4byte	.LASF63
	.byte	0x5
	.uleb128 0x41
	.4byte	.LASF64
	.byte	0x5
	.uleb128 0x42
	.4byte	.LASF65
	.byte	0x5
	.uleb128 0x43
	.4byte	.LASF66
	.byte	0x5
	.uleb128 0x44
	.4byte	.LASF67
	.byte	0x5
	.uleb128 0x45
	.4byte	.LASF68
	.byte	0x5
	.uleb128 0x46
	.4byte	.LASF69
	.byte	0x5
	.uleb128 0x47
	.4byte	.LASF70
	.byte	0x5
	.uleb128 0x48
	.4byte	.LASF71
	.byte	0x5
	.uleb128 0x49
	.4byte	.LASF72
	.byte	0x5
	.uleb128 0x4a
	.4byte	.LASF73
	.byte	0x5
	.uleb128 0x4b
	.4byte	.LASF74
	.byte	0x5
	.uleb128 0x4c
	.4byte	.LASF75
	.byte	0x5
	.uleb128 0x4d
	.4byte	.LASF76
	.byte	0x5
	.uleb128 0x4e
	.4byte	.LASF77
	.byte	0x5
	.uleb128 0x4f
	.4byte	.LASF78
	.byte	0x5
	.uleb128 0x50
	.4byte	.LASF79
	.byte	0x5
	.uleb128 0x51
	.4byte	.LASF80
	.byte	0x5
	.uleb128 0x52
	.4byte	.LASF81
	.byte	0x5
	.uleb128 0x53
	.4byte	.LASF82
	.byte	0x5
	.uleb128 0x54
	.4byte	.LASF83
	.byte	0x5
	.uleb128 0x55
	.4byte	.LASF84
	.byte	0x5
	.uleb128 0x56
	.4byte	.LASF85
	.byte	0x5
	.uleb128 0x57
	.4byte	.LASF86
	.byte	0x5
	.uleb128 0x58
	.4byte	.LASF87
	.byte	0x5
	.uleb128 0x59
	.4byte	.LASF88
	.byte	0x5
	.uleb128 0x5a
	.4byte	.LASF89
	.byte	0x5
	.uleb128 0x5b
	.4byte	.LASF90
	.byte	0x5
	.uleb128 0x5c
	.4byte	.LASF91
	.byte	0x5
	.uleb128 0x5d
	.4byte	.LASF92
	.byte	0x5
	.uleb128 0x5e
	.4byte	.LASF93
	.byte	0x5
	.uleb128 0x5f
	.4byte	.LASF94
	.byte	0x5
	.uleb128 0x60
	.4byte	.LASF95
	.byte	0x5
	.uleb128 0x61
	.4byte	.LASF96
	.byte	0x5
	.uleb128 0x62
	.4byte	.LASF97
	.byte	0x5
	.uleb128 0x63
	.4byte	.LASF98
	.byte	0x5
	.uleb128 0x64
	.4byte	.LASF99
	.byte	0x5
	.uleb128 0x65
	.4byte	.LASF100
	.byte	0x5
	.uleb128 0x66
	.4byte	.LASF101
	.byte	0x5
	.uleb128 0x67
	.4byte	.LASF102
	.byte	0x5
	.uleb128 0x68
	.4byte	.LASF103
	.byte	0x5
	.uleb128 0x69
	.4byte	.LASF104
	.byte	0x5
	.uleb128 0x6a
	.4byte	.LASF105
	.byte	0x5
	.uleb128 0x6b
	.4byte	.LASF106
	.byte	0x5
	.uleb128 0x6c
	.4byte	.LASF107
	.byte	0x5
	.uleb128 0x6d
	.4byte	.LASF108
	.byte	0x5
	.uleb128 0x6e
	.4byte	.LASF109
	.byte	0x5
	.uleb128 0x6f
	.4byte	.LASF110
	.byte	0x5
	.uleb128 0x70
	.4byte	.LASF111
	.byte	0x5
	.uleb128 0x71
	.4byte	.LASF112
	.byte	0x5
	.uleb128 0x72
	.4byte	.LASF113
	.byte	0x5
	.uleb128 0x73
	.4byte	.LASF114
	.byte	0x5
	.uleb128 0x74
	.4byte	.LASF115
	.byte	0x5
	.uleb128 0x75
	.4byte	.LASF116
	.byte	0x5
	.uleb128 0x76
	.4byte	.LASF117
	.byte	0x5
	.uleb128 0x77
	.4byte	.LASF118
	.byte	0x5
	.uleb128 0x78
	.4byte	.LASF119
	.byte	0x5
	.uleb128 0x79
	.4byte	.LASF120
	.byte	0x5
	.uleb128 0x7a
	.4byte	.LASF121
	.byte	0x5
	.uleb128 0x7b
	.4byte	.LASF122
	.byte	0x5
	.uleb128 0x7c
	.4byte	.LASF123
	.byte	0x5
	.uleb128 0x7d
	.4byte	.LASF124
	.byte	0x5
	.uleb128 0x7e
	.4byte	.LASF125
	.byte	0x5
	.uleb128 0x7f
	.4byte	.LASF126
	.byte	0x5
	.uleb128 0x80
	.4byte	.LASF127
	.byte	0x5
	.uleb128 0x81
	.4byte	.LASF128
	.byte	0x5
	.uleb128 0x82
	.4byte	.LASF129
	.byte	0x5
	.uleb128 0x83
	.4byte	.LASF130
	.byte	0x5
	.uleb128 0x84
	.4byte	.LASF131
	.byte	0x5
	.uleb128 0x85
	.4byte	.LASF132
	.byte	0x5
	.uleb128 0x86
	.4byte	.LASF133
	.byte	0x5
	.uleb128 0x87
	.4byte	.LASF134
	.byte	0x5
	.uleb128 0x88
	.4byte	.LASF135
	.byte	0x5
	.uleb128 0x89
	.4byte	.LASF136
	.byte	0x5
	.uleb128 0x8a
	.4byte	.LASF137
	.byte	0x5
	.uleb128 0x8b
	.4byte	.LASF138
	.byte	0x5
	.uleb128 0x8c
	.4byte	.LASF139
	.byte	0x5
	.uleb128 0x8d
	.4byte	.LASF140
	.byte	0x5
	.uleb128 0x8e
	.4byte	.LASF141
	.byte	0x5
	.uleb128 0x8f
	.4byte	.LASF142
	.byte	0x5
	.uleb128 0x90
	.4byte	.LASF143
	.byte	0x5
	.uleb128 0x91
	.4byte	.LASF144
	.byte	0x5
	.uleb128 0x92
	.4byte	.LASF145
	.byte	0x5
	.uleb128 0x93
	.4byte	.LASF146
	.byte	0x5
	.uleb128 0x94
	.4byte	.LASF147
	.byte	0x5
	.uleb128 0x95
	.4byte	.LASF148
	.byte	0x5
	.uleb128 0x96
	.4byte	.LASF149
	.byte	0x5
	.uleb128 0x97
	.4byte	.LASF150
	.byte	0x5
	.uleb128 0x98
	.4byte	.LASF151
	.byte	0x5
	.uleb128 0x99
	.4byte	.LASF152
	.byte	0x5
	.uleb128 0x9a
	.4byte	.LASF153
	.byte	0x5
	.uleb128 0x9b
	.4byte	.LASF154
	.byte	0x5
	.uleb128 0x9c
	.4byte	.LASF155
	.byte	0x5
	.uleb128 0x9d
	.4byte	.LASF156
	.byte	0x5
	.uleb128 0x9e
	.4byte	.LASF157
	.byte	0x5
	.uleb128 0x9f
	.4byte	.LASF158
	.byte	0x5
	.uleb128 0xa0
	.4byte	.LASF159
	.byte	0x5
	.uleb128 0xa1
	.4byte	.LASF160
	.byte	0x5
	.uleb128 0xa2
	.4byte	.LASF161
	.byte	0x5
	.uleb128 0xa3
	.4byte	.LASF162
	.byte	0x5
	.uleb128 0xa4
	.4byte	.LASF163
	.byte	0x5
	.uleb128 0xa5
	.4byte	.LASF164
	.byte	0x5
	.uleb128 0xa6
	.4byte	.LASF165
	.byte	0x5
	.uleb128 0xa7
	.4byte	.LASF166
	.byte	0x5
	.uleb128 0xa8
	.4byte	.LASF167
	.byte	0x5
	.uleb128 0xa9
	.4byte	.LASF168
	.byte	0x5
	.uleb128 0xaa
	.4byte	.LASF169
	.byte	0x5
	.uleb128 0xab
	.4byte	.LASF170
	.byte	0x5
	.uleb128 0xac
	.4byte	.LASF171
	.byte	0x5
	.uleb128 0xad
	.4byte	.LASF172
	.byte	0x5
	.uleb128 0xae
	.4byte	.LASF173
	.byte	0x5
	.uleb128 0xaf
	.4byte	.LASF174
	.byte	0x5
	.uleb128 0xb0
	.4byte	.LASF175
	.byte	0x5
	.uleb128 0xb1
	.4byte	.LASF176
	.byte	0x5
	.uleb128 0xb2
	.4byte	.LASF177
	.byte	0x5
	.uleb128 0xb3
	.4byte	.LASF178
	.byte	0x5
	.uleb128 0xb4
	.4byte	.LASF179
	.byte	0x5
	.uleb128 0xb5
	.4byte	.LASF180
	.byte	0x5
	.uleb128 0xb6
	.4byte	.LASF181
	.byte	0x5
	.uleb128 0xb7
	.4byte	.LASF182
	.byte	0x5
	.uleb128 0xb8
	.4byte	.LASF183
	.byte	0x5
	.uleb128 0xb9
	.4byte	.LASF184
	.byte	0x5
	.uleb128 0xba
	.4byte	.LASF185
	.byte	0x5
	.uleb128 0xbb
	.4byte	.LASF186
	.byte	0x5
	.uleb128 0xbc
	.4byte	.LASF187
	.byte	0x5
	.uleb128 0xbd
	.4byte	.LASF188
	.byte	0x5
	.uleb128 0xbe
	.4byte	.LASF189
	.byte	0x5
	.uleb128 0xbf
	.4byte	.LASF190
	.byte	0x5
	.uleb128 0xc0
	.4byte	.LASF191
	.byte	0x5
	.uleb128 0xc1
	.4byte	.LASF192
	.byte	0x5
	.uleb128 0xc2
	.4byte	.LASF193
	.byte	0x5
	.uleb128 0xc3
	.4byte	.LASF194
	.byte	0x5
	.uleb128 0xc4
	.4byte	.LASF195
	.byte	0x5
	.uleb128 0xc5
	.4byte	.LASF196
	.byte	0x5
	.uleb128 0xc6
	.4byte	.LASF197
	.byte	0x5
	.uleb128 0xc7
	.4byte	.LASF198
	.byte	0x5
	.uleb128 0xc8
	.4byte	.LASF199
	.byte	0x5
	.uleb128 0xc9
	.4byte	.LASF200
	.byte	0x5
	.uleb128 0xca
	.4byte	.LASF201
	.byte	0x5
	.uleb128 0xcb
	.4byte	.LASF202
	.byte	0x5
	.uleb128 0xcc
	.4byte	.LASF203
	.byte	0x5
	.uleb128 0xcd
	.4byte	.LASF204
	.byte	0x5
	.uleb128 0xce
	.4byte	.LASF205
	.byte	0x5
	.uleb128 0xcf
	.4byte	.LASF206
	.byte	0x5
	.uleb128 0xd0
	.4byte	.LASF207
	.byte	0x5
	.uleb128 0xd1
	.4byte	.LASF208
	.byte	0x5
	.uleb128 0xd2
	.4byte	.LASF209
	.byte	0x5
	.uleb128 0xd3
	.4byte	.LASF210
	.byte	0x5
	.uleb128 0xd4
	.4byte	.LASF211
	.byte	0x5
	.uleb128 0xd5
	.4byte	.LASF212
	.byte	0x5
	.uleb128 0xd6
	.4byte	.LASF213
	.byte	0x5
	.uleb128 0xd7
	.4byte	.LASF214
	.byte	0x5
	.uleb128 0xd8
	.4byte	.LASF215
	.byte	0x5
	.uleb128 0xd9
	.4byte	.LASF216
	.byte	0x5
	.uleb128 0xda
	.4byte	.LASF217
	.byte	0x5
	.uleb128 0xdb
	.4byte	.LASF218
	.byte	0x5
	.uleb128 0xdc
	.4byte	.LASF219
	.byte	0x5
	.uleb128 0xdd
	.4byte	.LASF220
	.byte	0x5
	.uleb128 0xde
	.4byte	.LASF221
	.byte	0x5
	.uleb128 0xdf
	.4byte	.LASF222
	.byte	0x5
	.uleb128 0xe0
	.4byte	.LASF223
	.byte	0x5
	.uleb128 0xe1
	.4byte	.LASF224
	.byte	0x5
	.uleb128 0xe2
	.4byte	.LASF225
	.byte	0x5
	.uleb128 0xe3
	.4byte	.LASF226
	.byte	0x5
	.uleb128 0xe4
	.4byte	.LASF227
	.byte	0x5
	.uleb128 0xe5
	.4byte	.LASF228
	.byte	0x5
	.uleb128 0xe6
	.4byte	.LASF229
	.byte	0x5
	.uleb128 0xe7
	.4byte	.LASF230
	.byte	0x5
	.uleb128 0xe8
	.4byte	.LASF231
	.byte	0x5
	.uleb128 0xe9
	.4byte	.LASF232
	.byte	0x5
	.uleb128 0xea
	.4byte	.LASF233
	.byte	0x5
	.uleb128 0xeb
	.4byte	.LASF234
	.byte	0x5
	.uleb128 0xec
	.4byte	.LASF235
	.byte	0x5
	.uleb128 0xed
	.4byte	.LASF236
	.byte	0x5
	.uleb128 0xee
	.4byte	.LASF237
	.byte	0x5
	.uleb128 0xef
	.4byte	.LASF238
	.byte	0x5
	.uleb128 0xf0
	.4byte	.LASF239
	.byte	0x5
	.uleb128 0xf1
	.4byte	.LASF240
	.byte	0x5
	.uleb128 0xf2
	.4byte	.LASF241
	.byte	0x5
	.uleb128 0xf3
	.4byte	.LASF242
	.byte	0x5
	.uleb128 0xf4
	.4byte	.LASF243
	.byte	0x5
	.uleb128 0xf5
	.4byte	.LASF244
	.byte	0x5
	.uleb128 0xf6
	.4byte	.LASF245
	.byte	0x5
	.uleb128 0xf7
	.4byte	.LASF246
	.byte	0x5
	.uleb128 0xf8
	.4byte	.LASF247
	.byte	0x5
	.uleb128 0xf9
	.4byte	.LASF248
	.byte	0x5
	.uleb128 0xfa
	.4byte	.LASF249
	.byte	0x5
	.uleb128 0xfb
	.4byte	.LASF250
	.byte	0x5
	.uleb128 0xfc
	.4byte	.LASF251
	.byte	0x5
	.uleb128 0xfd
	.4byte	.LASF252
	.byte	0x5
	.uleb128 0xfe
	.4byte	.LASF253
	.byte	0x5
	.uleb128 0xff
	.4byte	.LASF254
	.byte	0x5
	.uleb128 0x100
	.4byte	.LASF255
	.byte	0x5
	.uleb128 0x101
	.4byte	.LASF256
	.byte	0x5
	.uleb128 0x102
	.4byte	.LASF257
	.byte	0x5
	.uleb128 0x103
	.4byte	.LASF258
	.byte	0x5
	.uleb128 0x104
	.4byte	.LASF259
	.byte	0x5
	.uleb128 0x105
	.4byte	.LASF260
	.byte	0x5
	.uleb128 0x106
	.4byte	.LASF261
	.byte	0x5
	.uleb128 0x107
	.4byte	.LASF262
	.byte	0x5
	.uleb128 0x108
	.4byte	.LASF263
	.byte	0x5
	.uleb128 0x109
	.4byte	.LASF264
	.byte	0x5
	.uleb128 0x10a
	.4byte	.LASF265
	.byte	0x5
	.uleb128 0x10b
	.4byte	.LASF266
	.byte	0x5
	.uleb128 0x10c
	.4byte	.LASF267
	.byte	0x5
	.uleb128 0x10d
	.4byte	.LASF268
	.byte	0x5
	.uleb128 0x10e
	.4byte	.LASF269
	.byte	0x5
	.uleb128 0x10f
	.4byte	.LASF270
	.byte	0x5
	.uleb128 0x110
	.4byte	.LASF271
	.byte	0x5
	.uleb128 0x111
	.4byte	.LASF272
	.byte	0x5
	.uleb128 0x112
	.4byte	.LASF273
	.byte	0x5
	.uleb128 0x113
	.4byte	.LASF274
	.byte	0x5
	.uleb128 0x114
	.4byte	.LASF275
	.byte	0x5
	.uleb128 0x115
	.4byte	.LASF276
	.byte	0x5
	.uleb128 0x116
	.4byte	.LASF277
	.byte	0x5
	.uleb128 0x117
	.4byte	.LASF278
	.byte	0x5
	.uleb128 0x118
	.4byte	.LASF279
	.byte	0x5
	.uleb128 0x119
	.4byte	.LASF280
	.byte	0x5
	.uleb128 0x11a
	.4byte	.LASF281
	.byte	0x5
	.uleb128 0x11b
	.4byte	.LASF282
	.byte	0x5
	.uleb128 0x11c
	.4byte	.LASF283
	.byte	0x5
	.uleb128 0x11d
	.4byte	.LASF284
	.byte	0x5
	.uleb128 0x11e
	.4byte	.LASF285
	.byte	0x5
	.uleb128 0x11f
	.4byte	.LASF286
	.byte	0x5
	.uleb128 0x120
	.4byte	.LASF287
	.byte	0x5
	.uleb128 0x121
	.4byte	.LASF288
	.byte	0x5
	.uleb128 0x122
	.4byte	.LASF289
	.byte	0x5
	.uleb128 0x123
	.4byte	.LASF290
	.byte	0x5
	.uleb128 0x124
	.4byte	.LASF291
	.byte	0x5
	.uleb128 0x125
	.4byte	.LASF292
	.byte	0x5
	.uleb128 0x126
	.4byte	.LASF293
	.byte	0x5
	.uleb128 0x127
	.4byte	.LASF294
	.byte	0x5
	.uleb128 0x128
	.4byte	.LASF295
	.byte	0x5
	.uleb128 0x129
	.4byte	.LASF296
	.byte	0x5
	.uleb128 0x12a
	.4byte	.LASF297
	.byte	0x5
	.uleb128 0x12b
	.4byte	.LASF298
	.byte	0x5
	.uleb128 0x12c
	.4byte	.LASF299
	.byte	0x5
	.uleb128 0x12d
	.4byte	.LASF300
	.byte	0x5
	.uleb128 0x12e
	.4byte	.LASF301
	.byte	0x5
	.uleb128 0x12f
	.4byte	.LASF302
	.byte	0x5
	.uleb128 0x130
	.4byte	.LASF303
	.byte	0x5
	.uleb128 0x131
	.4byte	.LASF304
	.byte	0x5
	.uleb128 0x132
	.4byte	.LASF305
	.byte	0x5
	.uleb128 0x133
	.4byte	.LASF306
	.byte	0x5
	.uleb128 0x134
	.4byte	.LASF307
	.byte	0x5
	.uleb128 0x135
	.4byte	.LASF308
	.byte	0x5
	.uleb128 0x136
	.4byte	.LASF309
	.byte	0x5
	.uleb128 0x137
	.4byte	.LASF310
	.byte	0x5
	.uleb128 0x138
	.4byte	.LASF311
	.byte	0x5
	.uleb128 0x139
	.4byte	.LASF312
	.byte	0x5
	.uleb128 0x13a
	.4byte	.LASF313
	.byte	0x5
	.uleb128 0x13b
	.4byte	.LASF314
	.byte	0x5
	.uleb128 0x13c
	.4byte	.LASF315
	.byte	0x5
	.uleb128 0x13d
	.4byte	.LASF316
	.byte	0x5
	.uleb128 0x13e
	.4byte	.LASF317
	.byte	0x5
	.uleb128 0x13f
	.4byte	.LASF318
	.byte	0x5
	.uleb128 0x140
	.4byte	.LASF319
	.byte	0x5
	.uleb128 0x141
	.4byte	.LASF320
	.byte	0x5
	.uleb128 0x142
	.4byte	.LASF321
	.byte	0x5
	.uleb128 0x143
	.4byte	.LASF322
	.byte	0x5
	.uleb128 0x144
	.4byte	.LASF323
	.byte	0x5
	.uleb128 0x145
	.4byte	.LASF324
	.byte	0x5
	.uleb128 0x146
	.4byte	.LASF325
	.byte	0x5
	.uleb128 0x147
	.4byte	.LASF326
	.byte	0x5
	.uleb128 0x148
	.4byte	.LASF327
	.byte	0x5
	.uleb128 0x149
	.4byte	.LASF328
	.byte	0x5
	.uleb128 0x14a
	.4byte	.LASF329
	.byte	0x5
	.uleb128 0x14b
	.4byte	.LASF330
	.byte	0x5
	.uleb128 0x14c
	.4byte	.LASF331
	.byte	0x5
	.uleb128 0x14d
	.4byte	.LASF332
	.byte	0x5
	.uleb128 0x14e
	.4byte	.LASF333
	.byte	0x5
	.uleb128 0x14f
	.4byte	.LASF334
	.byte	0x5
	.uleb128 0x150
	.4byte	.LASF335
	.byte	0x5
	.uleb128 0x151
	.4byte	.LASF336
	.byte	0x5
	.uleb128 0x152
	.4byte	.LASF337
	.byte	0x5
	.uleb128 0x153
	.4byte	.LASF338
	.byte	0x5
	.uleb128 0x154
	.4byte	.LASF339
	.byte	0x5
	.uleb128 0x155
	.4byte	.LASF340
	.byte	0x5
	.uleb128 0x156
	.4byte	.LASF341
	.byte	0x5
	.uleb128 0x157
	.4byte	.LASF342
	.byte	0x5
	.uleb128 0x158
	.4byte	.LASF343
	.byte	0x5
	.uleb128 0x159
	.4byte	.LASF344
	.byte	0x5
	.uleb128 0x15a
	.4byte	.LASF345
	.byte	0x5
	.uleb128 0x15b
	.4byte	.LASF346
	.byte	0x5
	.uleb128 0x15c
	.4byte	.LASF347
	.byte	0x5
	.uleb128 0x15d
	.4byte	.LASF348
	.byte	0x5
	.uleb128 0x15e
	.4byte	.LASF349
	.byte	0x5
	.uleb128 0x15f
	.4byte	.LASF350
	.byte	0x5
	.uleb128 0x160
	.4byte	.LASF351
	.byte	0x5
	.uleb128 0x161
	.4byte	.LASF352
	.byte	0x5
	.uleb128 0x162
	.4byte	.LASF353
	.byte	0x5
	.uleb128 0x163
	.4byte	.LASF354
	.byte	0x5
	.uleb128 0x164
	.4byte	.LASF355
	.byte	0x5
	.uleb128 0x165
	.4byte	.LASF356
	.byte	0x5
	.uleb128 0x166
	.4byte	.LASF357
	.byte	0x5
	.uleb128 0x167
	.4byte	.LASF358
	.byte	0x5
	.uleb128 0x168
	.4byte	.LASF359
	.byte	0x5
	.uleb128 0x169
	.4byte	.LASF360
	.byte	0x5
	.uleb128 0x16a
	.4byte	.LASF361
	.byte	0x5
	.uleb128 0x16b
	.4byte	.LASF362
	.byte	0x5
	.uleb128 0x16c
	.4byte	.LASF363
	.byte	0x5
	.uleb128 0x16d
	.4byte	.LASF364
	.byte	0x5
	.uleb128 0x16e
	.4byte	.LASF365
	.byte	0x5
	.uleb128 0x16f
	.4byte	.LASF366
	.byte	0x5
	.uleb128 0x170
	.4byte	.LASF367
	.byte	0x5
	.uleb128 0x171
	.4byte	.LASF368
	.byte	0x5
	.uleb128 0x172
	.4byte	.LASF369
	.byte	0x5
	.uleb128 0x173
	.4byte	.LASF370
	.byte	0x5
	.uleb128 0x174
	.4byte	.LASF371
	.byte	0x5
	.uleb128 0x175
	.4byte	.LASF372
	.byte	0x5
	.uleb128 0x176
	.4byte	.LASF373
	.byte	0x5
	.uleb128 0x177
	.4byte	.LASF374
	.byte	0x5
	.uleb128 0x178
	.4byte	.LASF375
	.byte	0x5
	.uleb128 0x179
	.4byte	.LASF376
	.byte	0x5
	.uleb128 0x17a
	.4byte	.LASF377
	.byte	0x5
	.uleb128 0x17b
	.4byte	.LASF378
	.byte	0x5
	.uleb128 0x17c
	.4byte	.LASF379
	.byte	0x5
	.uleb128 0x17d
	.4byte	.LASF380
	.byte	0x5
	.uleb128 0x17e
	.4byte	.LASF381
	.byte	0x5
	.uleb128 0x17f
	.4byte	.LASF382
	.byte	0x5
	.uleb128 0x180
	.4byte	.LASF383
	.byte	0x5
	.uleb128 0x181
	.4byte	.LASF384
	.byte	0x5
	.uleb128 0x182
	.4byte	.LASF385
	.byte	0x5
	.uleb128 0x183
	.4byte	.LASF386
	.byte	0x5
	.uleb128 0x184
	.4byte	.LASF387
	.byte	0x5
	.uleb128 0x185
	.4byte	.LASF388
	.byte	0x5
	.uleb128 0x186
	.4byte	.LASF389
	.byte	0x5
	.uleb128 0x187
	.4byte	.LASF390
	.byte	0x5
	.uleb128 0x188
	.4byte	.LASF391
	.byte	0x5
	.uleb128 0x189
	.4byte	.LASF392
	.byte	0x5
	.uleb128 0x18a
	.4byte	.LASF393
	.byte	0x5
	.uleb128 0x18b
	.4byte	.LASF394
	.byte	0x5
	.uleb128 0x18c
	.4byte	.LASF395
	.byte	0x5
	.uleb128 0x18d
	.4byte	.LASF396
	.byte	0x6
	.uleb128 0x18e
	.4byte	.LASF397
	.byte	0x5
	.uleb128 0x1
	.4byte	.LASF398
	.byte	0x6
	.uleb128 0x2
	.4byte	.LASF399
	.byte	0x5
	.uleb128 0x1
	.4byte	.LASF400
	.byte	0x5
	.uleb128 0x2
	.4byte	.LASF401
	.byte	0x5
	.uleb128 0x3
	.4byte	.LASF402
	.byte	0x6
	.uleb128 0x4
	.4byte	.LASF403
	.byte	0x5
	.uleb128 0x1
	.4byte	.LASF404
	.byte	0x5
	.uleb128 0x2
	.4byte	.LASF405
	.byte	0x5
	.uleb128 0x3
	.4byte	.LASF406
	.byte	0x5
	.uleb128 0x4
	.4byte	.LASF407
	.byte	0x5
	.uleb128 0x5
	.4byte	.LASF408
	.byte	0x5
	.uleb128 0x6
	.4byte	.LASF409
	.byte	0x5
	.uleb128 0x7
	.4byte	.LASF410
	.byte	0x5
	.uleb128 0x8
	.4byte	.LASF411
	.byte	0x5
	.uleb128 0x9
	.4byte	.LASF412
	.byte	0x5
	.uleb128 0xa
	.4byte	.LASF413
	.byte	0x5
	.uleb128 0xb
	.4byte	.LASF414
	.byte	0x5
	.uleb128 0xc
	.4byte	.LASF415
	.byte	0x5
	.uleb128 0xd
	.4byte	.LASF416
	.byte	0x5
	.uleb128 0xe
	.4byte	.LASF417
	.byte	0x6
	.uleb128 0xf
	.4byte	.LASF418
	.byte	0x6
	.uleb128 0x1
	.4byte	.LASF419
	.byte	0x6
	.uleb128 0x1
	.4byte	.LASF420
	.byte	0x6
	.uleb128 0x1
	.4byte	.LASF421
	.byte	0x6
	.uleb128 0x1
	.4byte	.LASF422
	.byte	0x5
	.uleb128 0x1
	.4byte	.LASF423
	.byte	0x6
	.uleb128 0x2
	.4byte	.LASF424
	.byte	0x6
	.uleb128 0x1
	.4byte	.LASF425
	.byte	0x6
	.uleb128 0x1
	.4byte	.LASF426
	.byte	0x5
	.uleb128 0x1
	.4byte	.LASF427
	.byte	0x5
	.uleb128 0x2
	.4byte	.LASF428
	.byte	0x5
	.uleb128 0x3
	.4byte	.LASF429
	.byte	0x5
	.uleb128 0x4
	.4byte	.LASF430
	.byte	0x5
	.uleb128 0x5
	.4byte	.LASF431
	.byte	0x5
	.uleb128 0x6
	.4byte	.LASF432
	.byte	0x5
	.uleb128 0x7
	.4byte	.LASF433
	.byte	0x5
	.uleb128 0x8
	.4byte	.LASF434
	.byte	0x5
	.uleb128 0x9
	.4byte	.LASF435
	.byte	0x5
	.uleb128 0xa
	.4byte	.LASF436
	.byte	0x5
	.uleb128 0x1
	.4byte	.LASF437
	.byte	0x5
	.uleb128 0x2
	.4byte	.LASF438
	.byte	0x5
	.uleb128 0x3
	.4byte	.LASF439
	.byte	0x5
	.uleb128 0x4
	.4byte	.LASF440
	.byte	0x5
	.uleb128 0x5
	.4byte	.LASF441
	.file 10 "c:\\ac6\\systemworkbench\\plugins\\fr.ac6.mcu.externaltools.arm-none.win32_1.16.0.201807130628\\tools\\compiler\\lib\\gcc\\arm-none-eabi\\7.2.1\\include\\stdint.h"
	.byte	0x3
	.uleb128 0xe
	.uleb128 0xa
	.file 11 "c:\\ac6\\systemworkbench\\plugins\\fr.ac6.mcu.externaltools.arm-none.win32_1.16.0.201807130628\\tools\\compiler\\arm-none-eabi\\include\\stdint.h"
	.byte	0x3
	.uleb128 0x9
	.uleb128 0xb
	.byte	0x5
	.uleb128 0xa
	.4byte	.LASF442
	.byte	0x3
	.uleb128 0xc
	.uleb128 0x2
	.byte	0x5
	.uleb128 0x6
	.4byte	.LASF443
	.file 12 "c:\\ac6\\systemworkbench\\plugins\\fr.ac6.mcu.externaltools.arm-none.win32_1.16.0.201807130628\\tools\\compiler\\arm-none-eabi\\include\\sys\\features.h"
	.byte	0x3
	.uleb128 0x8
	.uleb128 0xc
	.byte	0x5
	.uleb128 0x16
	.4byte	.LASF444
	.file 13 "c:\\ac6\\systemworkbench\\plugins\\fr.ac6.mcu.externaltools.arm-none.win32_1.16.0.201807130628\\tools\\compiler\\arm-none-eabi\\include\\_newlib_version.h"
	.byte	0x3
	.uleb128 0x1c
	.uleb128 0xd
	.byte	0x7
	.4byte	.Ldebug_macro1
	.byte	0x4
	.byte	0x7
	.4byte	.Ldebug_macro2
	.byte	0x4
	.byte	0x7
	.4byte	.Ldebug_macro3
	.byte	0x4
	.file 14 "c:\\ac6\\systemworkbench\\plugins\\fr.ac6.mcu.externaltools.arm-none.win32_1.16.0.201807130628\\tools\\compiler\\arm-none-eabi\\include\\sys\\_intsup.h"
	.byte	0x3
	.uleb128 0xd
	.uleb128 0xe
	.byte	0x7
	.4byte	.Ldebug_macro4
	.byte	0x4
	.byte	0x3
	.uleb128 0xe
	.uleb128 0x3
	.byte	0x7
	.4byte	.Ldebug_macro5
	.byte	0x4
	.byte	0x7
	.4byte	.Ldebug_macro6
	.byte	0x4
	.byte	0x5
	.uleb128 0xd
	.4byte	.LASF596
	.byte	0x4
	.file 15 "c:\\ac6\\systemworkbench\\plugins\\fr.ac6.mcu.externaltools.arm-none.win32_1.16.0.201807130628\\tools\\compiler\\arm-none-eabi\\include\\string.h"
	.byte	0x3
	.uleb128 0xf
	.uleb128 0xf
	.byte	0x5
	.uleb128 0x8
	.4byte	.LASF597
	.file 16 "c:\\ac6\\systemworkbench\\plugins\\fr.ac6.mcu.externaltools.arm-none.win32_1.16.0.201807130628\\tools\\compiler\\arm-none-eabi\\include\\_ansi.h"
	.byte	0x3
	.uleb128 0xa
	.uleb128 0x10
	.byte	0x5
	.uleb128 0xd
	.4byte	.LASF598
	.file 17 "c:\\ac6\\systemworkbench\\plugins\\fr.ac6.mcu.externaltools.arm-none.win32_1.16.0.201807130628\\tools\\compiler\\arm-none-eabi\\include\\newlib.h"
	.byte	0x3
	.uleb128 0xf
	.uleb128 0x11
	.byte	0x7
	.4byte	.Ldebug_macro7
	.byte	0x4
	.file 18 "c:\\ac6\\systemworkbench\\plugins\\fr.ac6.mcu.externaltools.arm-none.win32_1.16.0.201807130628\\tools\\compiler\\arm-none-eabi\\include\\sys\\config.h"
	.byte	0x3
	.uleb128 0x10
	.uleb128 0x12
	.byte	0x5
	.uleb128 0x2
	.4byte	.LASF613
	.file 19 "c:\\ac6\\systemworkbench\\plugins\\fr.ac6.mcu.externaltools.arm-none.win32_1.16.0.201807130628\\tools\\compiler\\arm-none-eabi\\include\\machine\\ieeefp.h"
	.byte	0x3
	.uleb128 0x4
	.uleb128 0x13
	.byte	0x7
	.4byte	.Ldebug_macro8
	.byte	0x4
	.byte	0x7
	.4byte	.Ldebug_macro9
	.byte	0x4
	.byte	0x7
	.4byte	.Ldebug_macro10
	.byte	0x4
	.byte	0x3
	.uleb128 0xb
	.uleb128 0x7
	.byte	0x5
	.uleb128 0xb
	.4byte	.LASF649
	.byte	0x3
	.uleb128 0xd
	.uleb128 0x10
	.byte	0x4
	.byte	0x3
	.uleb128 0xe
	.uleb128 0x6
	.byte	0x7
	.4byte	.Ldebug_macro11
	.byte	0x4
	.byte	0x3
	.uleb128 0xf
	.uleb128 0x5
	.byte	0x5
	.uleb128 0x14
	.4byte	.LASF703
	.file 20 "c:\\ac6\\systemworkbench\\plugins\\fr.ac6.mcu.externaltools.arm-none.win32_1.16.0.201807130628\\tools\\compiler\\arm-none-eabi\\include\\machine\\_types.h"
	.byte	0x3
	.uleb128 0x18
	.uleb128 0x14
	.byte	0x5
	.uleb128 0x6
	.4byte	.LASF704
	.byte	0x4
	.byte	0x3
	.uleb128 0x19
	.uleb128 0x4
	.byte	0x7
	.4byte	.Ldebug_macro12
	.byte	0x4
	.byte	0x7
	.4byte	.Ldebug_macro13
	.byte	0x3
	.uleb128 0x9f
	.uleb128 0x6
	.byte	0x7
	.4byte	.Ldebug_macro14
	.byte	0x4
	.byte	0x7
	.4byte	.Ldebug_macro15
	.byte	0x4
	.byte	0x7
	.4byte	.Ldebug_macro16
	.byte	0x4
	.file 21 "c:\\ac6\\systemworkbench\\plugins\\fr.ac6.mcu.externaltools.arm-none.win32_1.16.0.201807130628\\tools\\compiler\\arm-none-eabi\\include\\sys\\cdefs.h"
	.byte	0x3
	.uleb128 0xc
	.uleb128 0x15
	.byte	0x5
	.uleb128 0x29
	.4byte	.LASF785
	.byte	0x3
	.uleb128 0x2d
	.uleb128 0x6
	.byte	0x4
	.byte	0x7
	.4byte	.Ldebug_macro17
	.byte	0x4
	.byte	0x7
	.4byte	.Ldebug_macro18
	.byte	0x3
	.uleb128 0x11
	.uleb128 0x6
	.byte	0x7
	.4byte	.Ldebug_macro19
	.byte	0x4
	.file 22 "c:\\ac6\\systemworkbench\\plugins\\fr.ac6.mcu.externaltools.arm-none.win32_1.16.0.201807130628\\tools\\compiler\\arm-none-eabi\\include\\xlocale.h"
	.byte	0x3
	.uleb128 0x14
	.uleb128 0x16
	.byte	0x5
	.uleb128 0x4
	.4byte	.LASF908
	.byte	0x4
	.file 23 "c:\\ac6\\systemworkbench\\plugins\\fr.ac6.mcu.externaltools.arm-none.win32_1.16.0.201807130628\\tools\\compiler\\arm-none-eabi\\include\\strings.h"
	.byte	0x3
	.uleb128 0x18
	.uleb128 0x17
	.byte	0x5
	.uleb128 0x1e
	.4byte	.LASF909
	.byte	0x4
	.file 24 "c:\\ac6\\systemworkbench\\plugins\\fr.ac6.mcu.externaltools.arm-none.win32_1.16.0.201807130628\\tools\\compiler\\arm-none-eabi\\include\\sys\\string.h"
	.byte	0x3
	.uleb128 0xaf
	.uleb128 0x18
	.byte	0x4
	.byte	0x4
	.byte	0x3
	.uleb128 0x10
	.uleb128 0x8
	.byte	0x7
	.4byte	.Ldebug_macro20
	.byte	0x4
	.byte	0x5
	.uleb128 0x15
	.4byte	.LASF912
	.byte	0x4
	.byte	0
	.section	.debug_macro,"G",%progbits,wm4._newlib_version.h.4.3572908597b70d672d181fc7fc501c19,comdat
.Ldebug_macro1:
	.2byte	0x4
	.byte	0
	.byte	0x5
	.uleb128 0x4
	.4byte	.LASF445
	.byte	0x5
	.uleb128 0x6
	.4byte	.LASF446
	.byte	0x5
	.uleb128 0x7
	.4byte	.LASF447
	.byte	0x5
	.uleb128 0x8
	.4byte	.LASF448
	.byte	0x5
	.uleb128 0x9
	.4byte	.LASF449
	.byte	0
	.section	.debug_macro,"G",%progbits,wm4.features.h.33.d97f2d646536517df901beeb5b9993f5,comdat
.Ldebug_macro2:
	.2byte	0x4
	.byte	0
	.byte	0x5
	.uleb128 0x21
	.4byte	.LASF450
	.byte	0x5
	.uleb128 0x28
	.4byte	.LASF451
	.byte	0x6
	.uleb128 0x80
	.4byte	.LASF452
	.byte	0x5
	.uleb128 0x81
	.4byte	.LASF453
	.byte	0x6
	.uleb128 0x85
	.4byte	.LASF454
	.byte	0x5
	.uleb128 0x86
	.4byte	.LASF455
	.byte	0x6
	.uleb128 0x87
	.4byte	.LASF456
	.byte	0x5
	.uleb128 0x88
	.4byte	.LASF457
	.byte	0x6
	.uleb128 0x9b
	.4byte	.LASF458
	.byte	0x5
	.uleb128 0x9c
	.4byte	.LASF459
	.byte	0x5
	.uleb128 0xf2
	.4byte	.LASF460
	.byte	0x5
	.uleb128 0xf8
	.4byte	.LASF461
	.byte	0x5
	.uleb128 0x100
	.4byte	.LASF462
	.byte	0x5
	.uleb128 0x105
	.4byte	.LASF463
	.byte	0x5
	.uleb128 0x110
	.4byte	.LASF464
	.byte	0x5
	.uleb128 0x114
	.4byte	.LASF465
	.byte	0x5
	.uleb128 0x11a
	.4byte	.LASF466
	.byte	0x5
	.uleb128 0x12a
	.4byte	.LASF467
	.byte	0x5
	.uleb128 0x13a
	.4byte	.LASF468
	.byte	0
	.section	.debug_macro,"G",%progbits,wm4._default_types.h.15.247e5cd201eca3442cbf5404108c4935,comdat
.Ldebug_macro3:
	.2byte	0x4
	.byte	0
	.byte	0x5
	.uleb128 0xf
	.4byte	.LASF469
	.byte	0x5
	.uleb128 0x1a
	.4byte	.LASF470
	.byte	0x5
	.uleb128 0x21
	.4byte	.LASF471
	.byte	0x5
	.uleb128 0x2f
	.4byte	.LASF472
	.byte	0x5
	.uleb128 0x3d
	.4byte	.LASF473
	.byte	0x5
	.uleb128 0x53
	.4byte	.LASF474
	.byte	0x5
	.uleb128 0x6d
	.4byte	.LASF475
	.byte	0x5
	.uleb128 0x8c
	.4byte	.LASF476
	.byte	0x5
	.uleb128 0xa6
	.4byte	.LASF477
	.byte	0x5
	.uleb128 0xbc
	.4byte	.LASF478
	.byte	0x5
	.uleb128 0xce
	.4byte	.LASF479
	.byte	0x6
	.uleb128 0xf4
	.4byte	.LASF480
	.byte	0
	.section	.debug_macro,"G",%progbits,wm4._intsup.h.10.cce27fed8484c08a33f522034c30d2b5,comdat
.Ldebug_macro4:
	.2byte	0x4
	.byte	0
	.byte	0x5
	.uleb128 0xa
	.4byte	.LASF481
	.byte	0x5
	.uleb128 0x10
	.4byte	.LASF482
	.byte	0x6
	.uleb128 0x2a
	.4byte	.LASF483
	.byte	0x6
	.uleb128 0x2b
	.4byte	.LASF484
	.byte	0x6
	.uleb128 0x2c
	.4byte	.LASF485
	.byte	0x6
	.uleb128 0x2d
	.4byte	.LASF486
	.byte	0x2
	.uleb128 0x2e
	.ascii	"int\000"
	.byte	0x6
	.uleb128 0x2f
	.4byte	.LASF487
	.byte	0x6
	.uleb128 0x30
	.4byte	.LASF488
	.byte	0x5
	.uleb128 0x31
	.4byte	.LASF489
	.byte	0x5
	.uleb128 0x32
	.4byte	.LASF490
	.byte	0x5
	.uleb128 0x33
	.4byte	.LASF491
	.byte	0x5
	.uleb128 0x34
	.4byte	.LASF492
	.byte	0x5
	.uleb128 0x35
	.4byte	.LASF493
	.byte	0x5
	.uleb128 0x36
	.4byte	.LASF494
	.byte	0x5
	.uleb128 0x37
	.4byte	.LASF495
	.byte	0x5
	.uleb128 0x40
	.4byte	.LASF496
	.byte	0x5
	.uleb128 0x47
	.4byte	.LASF497
	.byte	0x5
	.uleb128 0x4f
	.4byte	.LASF498
	.byte	0x5
	.uleb128 0x5a
	.4byte	.LASF499
	.byte	0x5
	.uleb128 0x65
	.4byte	.LASF500
	.byte	0x5
	.uleb128 0x6e
	.4byte	.LASF501
	.byte	0x5
	.uleb128 0x75
	.4byte	.LASF502
	.byte	0x5
	.uleb128 0x7e
	.4byte	.LASF503
	.byte	0x5
	.uleb128 0x85
	.4byte	.LASF504
	.byte	0x5
	.uleb128 0x90
	.4byte	.LASF505
	.byte	0x5
	.uleb128 0x94
	.4byte	.LASF506
	.byte	0x5
	.uleb128 0x9f
	.4byte	.LASF507
	.byte	0x5
	.uleb128 0xaa
	.4byte	.LASF508
	.byte	0x5
	.uleb128 0xb3
	.4byte	.LASF509
	.byte	0x6
	.uleb128 0xb5
	.4byte	.LASF483
	.byte	0x6
	.uleb128 0xb6
	.4byte	.LASF484
	.byte	0x6
	.uleb128 0xb7
	.4byte	.LASF485
	.byte	0x6
	.uleb128 0xb8
	.4byte	.LASF486
	.byte	0x2
	.uleb128 0xb9
	.ascii	"int\000"
	.byte	0x6
	.uleb128 0xba
	.4byte	.LASF488
	.byte	0x6
	.uleb128 0xbf
	.4byte	.LASF487
	.byte	0
	.section	.debug_macro,"G",%progbits,wm4._stdint.h.10.c24fa3af3bc1706662bb5593a907e841,comdat
.Ldebug_macro5:
	.2byte	0x4
	.byte	0
	.byte	0x5
	.uleb128 0xa
	.4byte	.LASF510
	.byte	0x5
	.uleb128 0x15
	.4byte	.LASF511
	.byte	0x5
	.uleb128 0x19
	.4byte	.LASF512
	.byte	0x5
	.uleb128 0x1b
	.4byte	.LASF513
	.byte	0x5
	.uleb128 0x21
	.4byte	.LASF514
	.byte	0x5
	.uleb128 0x25
	.4byte	.LASF515
	.byte	0x5
	.uleb128 0x27
	.4byte	.LASF516
	.byte	0x5
	.uleb128 0x2d
	.4byte	.LASF517
	.byte	0x5
	.uleb128 0x31
	.4byte	.LASF518
	.byte	0x5
	.uleb128 0x33
	.4byte	.LASF519
	.byte	0x5
	.uleb128 0x39
	.4byte	.LASF520
	.byte	0x5
	.uleb128 0x3d
	.4byte	.LASF521
	.byte	0x5
	.uleb128 0x3f
	.4byte	.LASF522
	.byte	0x5
	.uleb128 0x44
	.4byte	.LASF523
	.byte	0x5
	.uleb128 0x49
	.4byte	.LASF524
	.byte	0x5
	.uleb128 0x4e
	.4byte	.LASF525
	.byte	0x5
	.uleb128 0x53
	.4byte	.LASF526
	.byte	0
	.section	.debug_macro,"G",%progbits,wm4.stdint.h.23.d53047a68f4a85177f80b422d52785ed,comdat
.Ldebug_macro6:
	.2byte	0x4
	.byte	0
	.byte	0x5
	.uleb128 0x17
	.4byte	.LASF527
	.byte	0x5
	.uleb128 0x1d
	.4byte	.LASF528
	.byte	0x5
	.uleb128 0x23
	.4byte	.LASF529
	.byte	0x5
	.uleb128 0x29
	.4byte	.LASF530
	.byte	0x5
	.uleb128 0x35
	.4byte	.LASF531
	.byte	0x5
	.uleb128 0x3f
	.4byte	.LASF532
	.byte	0x5
	.uleb128 0x49
	.4byte	.LASF533
	.byte	0x5
	.uleb128 0x53
	.4byte	.LASF534
	.byte	0x5
	.uleb128 0x80
	.4byte	.LASF535
	.byte	0x5
	.uleb128 0x81
	.4byte	.LASF536
	.byte	0x5
	.uleb128 0x82
	.4byte	.LASF537
	.byte	0x5
	.uleb128 0x98
	.4byte	.LASF538
	.byte	0x5
	.uleb128 0x99
	.4byte	.LASF539
	.byte	0x5
	.uleb128 0x9a
	.4byte	.LASF540
	.byte	0x5
	.uleb128 0xa2
	.4byte	.LASF541
	.byte	0x5
	.uleb128 0xa3
	.4byte	.LASF542
	.byte	0x5
	.uleb128 0xa4
	.4byte	.LASF543
	.byte	0x5
	.uleb128 0xae
	.4byte	.LASF544
	.byte	0x5
	.uleb128 0xaf
	.4byte	.LASF545
	.byte	0x5
	.uleb128 0xb0
	.4byte	.LASF546
	.byte	0x5
	.uleb128 0xb8
	.4byte	.LASF547
	.byte	0x5
	.uleb128 0xb9
	.4byte	.LASF548
	.byte	0x5
	.uleb128 0xba
	.4byte	.LASF549
	.byte	0x5
	.uleb128 0xc4
	.4byte	.LASF550
	.byte	0x5
	.uleb128 0xc5
	.4byte	.LASF551
	.byte	0x5
	.uleb128 0xc6
	.4byte	.LASF552
	.byte	0x5
	.uleb128 0xd4
	.4byte	.LASF553
	.byte	0x5
	.uleb128 0xd5
	.4byte	.LASF554
	.byte	0x5
	.uleb128 0xd6
	.4byte	.LASF555
	.byte	0x5
	.uleb128 0xe6
	.4byte	.LASF556
	.byte	0x5
	.uleb128 0xe7
	.4byte	.LASF557
	.byte	0x5
	.uleb128 0xe8
	.4byte	.LASF558
	.byte	0x5
	.uleb128 0xf6
	.4byte	.LASF559
	.byte	0x5
	.uleb128 0xf7
	.4byte	.LASF560
	.byte	0x5
	.uleb128 0xf8
	.4byte	.LASF561
	.byte	0x5
	.uleb128 0x106
	.4byte	.LASF562
	.byte	0x5
	.uleb128 0x107
	.4byte	.LASF563
	.byte	0x5
	.uleb128 0x108
	.4byte	.LASF564
	.byte	0x5
	.uleb128 0x116
	.4byte	.LASF565
	.byte	0x5
	.uleb128 0x117
	.4byte	.LASF566
	.byte	0x5
	.uleb128 0x118
	.4byte	.LASF567
	.byte	0x5
	.uleb128 0x126
	.4byte	.LASF568
	.byte	0x5
	.uleb128 0x127
	.4byte	.LASF569
	.byte	0x5
	.uleb128 0x128
	.4byte	.LASF570
	.byte	0x5
	.uleb128 0x136
	.4byte	.LASF571
	.byte	0x5
	.uleb128 0x137
	.4byte	.LASF572
	.byte	0x5
	.uleb128 0x138
	.4byte	.LASF573
	.byte	0x5
	.uleb128 0x146
	.4byte	.LASF574
	.byte	0x5
	.uleb128 0x147
	.4byte	.LASF575
	.byte	0x5
	.uleb128 0x14f
	.4byte	.LASF576
	.byte	0x5
	.uleb128 0x157
	.4byte	.LASF577
	.byte	0x5
	.uleb128 0x15d
	.4byte	.LASF578
	.byte	0x5
	.uleb128 0x15e
	.4byte	.LASF579
	.byte	0x5
	.uleb128 0x162
	.4byte	.LASF580
	.byte	0x5
	.uleb128 0x166
	.4byte	.LASF581
	.byte	0x5
	.uleb128 0x16b
	.4byte	.LASF582
	.byte	0x5
	.uleb128 0x176
	.4byte	.LASF583
	.byte	0x5
	.uleb128 0x180
	.4byte	.LASF584
	.byte	0x5
	.uleb128 0x185
	.4byte	.LASF585
	.byte	0x5
	.uleb128 0x18c
	.4byte	.LASF586
	.byte	0x5
	.uleb128 0x18d
	.4byte	.LASF587
	.byte	0x5
	.uleb128 0x198
	.4byte	.LASF588
	.byte	0x5
	.uleb128 0x199
	.4byte	.LASF589
	.byte	0x5
	.uleb128 0x1a4
	.4byte	.LASF590
	.byte	0x5
	.uleb128 0x1a5
	.4byte	.LASF591
	.byte	0x5
	.uleb128 0x1b1
	.4byte	.LASF592
	.byte	0x5
	.uleb128 0x1b2
	.4byte	.LASF593
	.byte	0x5
	.uleb128 0x1c1
	.4byte	.LASF594
	.byte	0x5
	.uleb128 0x1c2
	.4byte	.LASF595
	.byte	0
	.section	.debug_macro,"G",%progbits,wm4.newlib.h.8.e0fd068ed40a600f7426443f865dd469,comdat
.Ldebug_macro7:
	.2byte	0x4
	.byte	0
	.byte	0x5
	.uleb128 0x8
	.4byte	.LASF599
	.byte	0x5
	.uleb128 0x15
	.4byte	.LASF600
	.byte	0x5
	.uleb128 0x18
	.4byte	.LASF601
	.byte	0x5
	.uleb128 0x28
	.4byte	.LASF602
	.byte	0x5
	.uleb128 0x32
	.4byte	.LASF603
	.byte	0x5
	.uleb128 0x36
	.4byte	.LASF604
	.byte	0x5
	.uleb128 0x39
	.4byte	.LASF605
	.byte	0x5
	.uleb128 0x3c
	.4byte	.LASF606
	.byte	0x5
	.uleb128 0x3f
	.4byte	.LASF607
	.byte	0x5
	.uleb128 0x42
	.4byte	.LASF608
	.byte	0x5
	.uleb128 0x45
	.4byte	.LASF609
	.byte	0x5
	.uleb128 0x48
	.4byte	.LASF610
	.byte	0x5
	.uleb128 0x4b
	.4byte	.LASF611
	.byte	0x5
	.uleb128 0x5c
	.4byte	.LASF612
	.byte	0
	.section	.debug_macro,"G",%progbits,wm4.ieeefp.h.77.49bcce8a603f3d93a95080d6a3573782,comdat
.Ldebug_macro8:
	.2byte	0x4
	.byte	0
	.byte	0x5
	.uleb128 0x4d
	.4byte	.LASF614
	.byte	0x5
	.uleb128 0x51
	.4byte	.LASF615
	.byte	0x5
	.uleb128 0x1c6
	.4byte	.LASF616
	.byte	0
	.section	.debug_macro,"G",%progbits,wm4.config.h.220.6cac6a9685cfce5e83c17784171638d9,comdat
.Ldebug_macro9:
	.2byte	0x4
	.byte	0
	.byte	0x5
	.uleb128 0xdc
	.4byte	.LASF617
	.byte	0x6
	.uleb128 0xe2
	.4byte	.LASF618
	.byte	0x5
	.uleb128 0xe6
	.4byte	.LASF619
	.byte	0x5
	.uleb128 0xf6
	.4byte	.LASF620
	.byte	0x5
	.uleb128 0xfa
	.4byte	.LASF621
	.byte	0x5
	.uleb128 0x101
	.4byte	.LASF622
	.byte	0x5
	.uleb128 0x107
	.4byte	.LASF623
	.byte	0
	.section	.debug_macro,"G",%progbits,wm4._ansi.h.23.9f8fcfa20193763fcf364fb91705c94b,comdat
.Ldebug_macro10:
	.2byte	0x4
	.byte	0
	.byte	0x5
	.uleb128 0x17
	.4byte	.LASF624
	.byte	0x5
	.uleb128 0x2c
	.4byte	.LASF625
	.byte	0x5
	.uleb128 0x2d
	.4byte	.LASF626
	.byte	0x5
	.uleb128 0x2e
	.4byte	.LASF627
	.byte	0x5
	.uleb128 0x32
	.4byte	.LASF628
	.byte	0x5
	.uleb128 0x33
	.4byte	.LASF629
	.byte	0x5
	.uleb128 0x34
	.4byte	.LASF630
	.byte	0x5
	.uleb128 0x35
	.4byte	.LASF631
	.byte	0x5
	.uleb128 0x36
	.4byte	.LASF632
	.byte	0x5
	.uleb128 0x37
	.4byte	.LASF633
	.byte	0x5
	.uleb128 0x38
	.4byte	.LASF634
	.byte	0x5
	.uleb128 0x39
	.4byte	.LASF635
	.byte	0x5
	.uleb128 0x40
	.4byte	.LASF636
	.byte	0x5
	.uleb128 0x41
	.4byte	.LASF637
	.byte	0x5
	.uleb128 0x42
	.4byte	.LASF638
	.byte	0x5
	.uleb128 0x43
	.4byte	.LASF639
	.byte	0x5
	.uleb128 0x45
	.4byte	.LASF640
	.byte	0x5
	.uleb128 0x46
	.4byte	.LASF641
	.byte	0x5
	.uleb128 0x47
	.4byte	.LASF642
	.byte	0x5
	.uleb128 0x49
	.4byte	.LASF643
	.byte	0x5
	.uleb128 0x4c
	.4byte	.LASF644
	.byte	0x5
	.uleb128 0x65
	.4byte	.LASF645
	.byte	0x5
	.uleb128 0x7f
	.4byte	.LASF646
	.byte	0x5
	.uleb128 0x83
	.4byte	.LASF647
	.byte	0x5
	.uleb128 0x84
	.4byte	.LASF648
	.byte	0
	.section	.debug_macro,"G",%progbits,wm4.stddef.h.39.a38874c8f8a57e66301090908ec2a69f,comdat
.Ldebug_macro11:
	.2byte	0x4
	.byte	0
	.byte	0x5
	.uleb128 0x27
	.4byte	.LASF650
	.byte	0x5
	.uleb128 0x28
	.4byte	.LASF651
	.byte	0x5
	.uleb128 0x2a
	.4byte	.LASF652
	.byte	0x5
	.uleb128 0x89
	.4byte	.LASF653
	.byte	0x5
	.uleb128 0x8a
	.4byte	.LASF654
	.byte	0x5
	.uleb128 0x8b
	.4byte	.LASF655
	.byte	0x5
	.uleb128 0x8c
	.4byte	.LASF656
	.byte	0x5
	.uleb128 0x8d
	.4byte	.LASF657
	.byte	0x5
	.uleb128 0x8e
	.4byte	.LASF658
	.byte	0x5
	.uleb128 0x8f
	.4byte	.LASF659
	.byte	0x5
	.uleb128 0x90
	.4byte	.LASF660
	.byte	0x5
	.uleb128 0x91
	.4byte	.LASF661
	.byte	0x6
	.uleb128 0xa1
	.4byte	.LASF662
	.byte	0x5
	.uleb128 0xbb
	.4byte	.LASF663
	.byte	0x5
	.uleb128 0xbc
	.4byte	.LASF664
	.byte	0x5
	.uleb128 0xbd
	.4byte	.LASF665
	.byte	0x5
	.uleb128 0xbe
	.4byte	.LASF666
	.byte	0x5
	.uleb128 0xbf
	.4byte	.LASF667
	.byte	0x5
	.uleb128 0xc0
	.4byte	.LASF668
	.byte	0x5
	.uleb128 0xc1
	.4byte	.LASF669
	.byte	0x5
	.uleb128 0xc2
	.4byte	.LASF670
	.byte	0x5
	.uleb128 0xc3
	.4byte	.LASF671
	.byte	0x5
	.uleb128 0xc4
	.4byte	.LASF672
	.byte	0x5
	.uleb128 0xc5
	.4byte	.LASF673
	.byte	0x5
	.uleb128 0xc6
	.4byte	.LASF674
	.byte	0x5
	.uleb128 0xc7
	.4byte	.LASF675
	.byte	0x5
	.uleb128 0xc8
	.4byte	.LASF676
	.byte	0x5
	.uleb128 0xc9
	.4byte	.LASF677
	.byte	0x5
	.uleb128 0xca
	.4byte	.LASF678
	.byte	0x5
	.uleb128 0xd2
	.4byte	.LASF679
	.byte	0x6
	.uleb128 0xee
	.4byte	.LASF680
	.byte	0x5
	.uleb128 0x10b
	.4byte	.LASF681
	.byte	0x5
	.uleb128 0x10c
	.4byte	.LASF682
	.byte	0x5
	.uleb128 0x10d
	.4byte	.LASF683
	.byte	0x5
	.uleb128 0x10e
	.4byte	.LASF684
	.byte	0x5
	.uleb128 0x10f
	.4byte	.LASF685
	.byte	0x5
	.uleb128 0x110
	.4byte	.LASF686
	.byte	0x5
	.uleb128 0x111
	.4byte	.LASF687
	.byte	0x5
	.uleb128 0x112
	.4byte	.LASF688
	.byte	0x5
	.uleb128 0x113
	.4byte	.LASF689
	.byte	0x5
	.uleb128 0x114
	.4byte	.LASF690
	.byte	0x5
	.uleb128 0x115
	.4byte	.LASF691
	.byte	0x5
	.uleb128 0x116
	.4byte	.LASF692
	.byte	0x5
	.uleb128 0x117
	.4byte	.LASF693
	.byte	0x5
	.uleb128 0x118
	.4byte	.LASF694
	.byte	0x5
	.uleb128 0x119
	.4byte	.LASF695
	.byte	0x6
	.uleb128 0x126
	.4byte	.LASF696
	.byte	0x6
	.uleb128 0x15b
	.4byte	.LASF697
	.byte	0x6
	.uleb128 0x191
	.4byte	.LASF698
	.byte	0x5
	.uleb128 0x196
	.4byte	.LASF699
	.byte	0x6
	.uleb128 0x19c
	.4byte	.LASF700
	.byte	0x5
	.uleb128 0x1a1
	.4byte	.LASF701
	.byte	0x5
	.uleb128 0x1a6
	.4byte	.LASF702
	.byte	0
	.section	.debug_macro,"G",%progbits,wm4.lock.h.2.1461d1fff82dffe8bfddc23307f6484f,comdat
.Ldebug_macro12:
	.2byte	0x4
	.byte	0
	.byte	0x5
	.uleb128 0x2
	.4byte	.LASF705
	.byte	0x5
	.uleb128 0x23
	.4byte	.LASF706
	.byte	0x5
	.uleb128 0x25
	.4byte	.LASF707
	.byte	0x5
	.uleb128 0x27
	.4byte	.LASF708
	.byte	0x5
	.uleb128 0x2a
	.4byte	.LASF709
	.byte	0x5
	.uleb128 0x2c
	.4byte	.LASF710
	.byte	0x5
	.uleb128 0x2e
	.4byte	.LASF711
	.byte	0x5
	.uleb128 0x30
	.4byte	.LASF712
	.byte	0x5
	.uleb128 0x32
	.4byte	.LASF713
	.byte	0x5
	.uleb128 0x34
	.4byte	.LASF714
	.byte	0x5
	.uleb128 0x36
	.4byte	.LASF715
	.byte	0x5
	.uleb128 0x38
	.4byte	.LASF716
	.byte	0x5
	.uleb128 0x3b
	.4byte	.LASF717
	.byte	0x5
	.uleb128 0x3d
	.4byte	.LASF718
	.byte	0
	.section	.debug_macro,"G",%progbits,wm4._types.h.125.5cf8a495f1f7ef36777ad868a1e32068,comdat
.Ldebug_macro13:
	.2byte	0x4
	.byte	0
	.byte	0x6
	.uleb128 0x7d
	.4byte	.LASF719
	.byte	0x5
	.uleb128 0x90
	.4byte	.LASF720
	.byte	0x6
	.uleb128 0x92
	.4byte	.LASF484
	.byte	0x5
	.uleb128 0x9e
	.4byte	.LASF721
	.byte	0
	.section	.debug_macro,"G",%progbits,wm4.stddef.h.161.5349cb105733e8777bfb0cf53c4e3f34,comdat
.Ldebug_macro14:
	.2byte	0x4
	.byte	0
	.byte	0x6
	.uleb128 0xa1
	.4byte	.LASF662
	.byte	0x6
	.uleb128 0xee
	.4byte	.LASF680
	.byte	0x6
	.uleb128 0x15b
	.4byte	.LASF697
	.byte	0x5
	.uleb128 0x160
	.4byte	.LASF722
	.byte	0x6
	.uleb128 0x167
	.4byte	.LASF723
	.byte	0x6
	.uleb128 0x191
	.4byte	.LASF698
	.byte	0x5
	.uleb128 0x196
	.4byte	.LASF699
	.byte	0x6
	.uleb128 0x19c
	.4byte	.LASF700
	.byte	0x5
	.uleb128 0x1a1
	.4byte	.LASF701
	.byte	0
	.section	.debug_macro,"G",%progbits,wm4._types.h.184.7120b8bb2e0149e2359704f4e2251b68,comdat
.Ldebug_macro15:
	.2byte	0x4
	.byte	0
	.byte	0x5
	.uleb128 0xb8
	.4byte	.LASF724
	.byte	0x5
	.uleb128 0xc0
	.4byte	.LASF725
	.byte	0x5
	.uleb128 0xc4
	.4byte	.LASF726
	.byte	0x5
	.uleb128 0xc7
	.4byte	.LASF727
	.byte	0
	.section	.debug_macro,"G",%progbits,wm4.reent.h.17.87376802c2b370b32a762f0a30482d9e,comdat
.Ldebug_macro16:
	.2byte	0x4
	.byte	0
	.byte	0x5
	.uleb128 0x11
	.4byte	.LASF728
	.byte	0x5
	.uleb128 0x15
	.4byte	.LASF729
	.byte	0x5
	.uleb128 0x48
	.4byte	.LASF730
	.byte	0x5
	.uleb128 0x64
	.4byte	.LASF731
	.byte	0x5
	.uleb128 0x6a
	.4byte	.LASF732
	.byte	0x5
	.uleb128 0xb2
	.4byte	.LASF733
	.byte	0x5
	.uleb128 0x138
	.4byte	.LASF734
	.byte	0x5
	.uleb128 0x139
	.4byte	.LASF735
	.byte	0x5
	.uleb128 0x13a
	.4byte	.LASF736
	.byte	0x5
	.uleb128 0x13b
	.4byte	.LASF737
	.byte	0x5
	.uleb128 0x13c
	.4byte	.LASF738
	.byte	0x5
	.uleb128 0x13d
	.4byte	.LASF739
	.byte	0x5
	.uleb128 0x13e
	.4byte	.LASF740
	.byte	0x5
	.uleb128 0x14a
	.4byte	.LASF741
	.byte	0x5
	.uleb128 0x14b
	.4byte	.LASF742
	.byte	0x5
	.uleb128 0x14c
	.4byte	.LASF743
	.byte	0x5
	.uleb128 0x274
	.4byte	.LASF744
	.byte	0x5
	.uleb128 0x290
	.4byte	.LASF745
	.byte	0x5
	.uleb128 0x293
	.4byte	.LASF746
	.byte	0x5
	.uleb128 0x2c3
	.4byte	.LASF747
	.byte	0x5
	.uleb128 0x2d1
	.4byte	.LASF748
	.byte	0x5
	.uleb128 0x2d2
	.4byte	.LASF749
	.byte	0x5
	.uleb128 0x2d3
	.4byte	.LASF750
	.byte	0x5
	.uleb128 0x2d4
	.4byte	.LASF751
	.byte	0x5
	.uleb128 0x2d5
	.4byte	.LASF752
	.byte	0x5
	.uleb128 0x2d6
	.4byte	.LASF753
	.byte	0x5
	.uleb128 0x2d7
	.4byte	.LASF754
	.byte	0x5
	.uleb128 0x2d9
	.4byte	.LASF755
	.byte	0x5
	.uleb128 0x2da
	.4byte	.LASF756
	.byte	0x5
	.uleb128 0x2db
	.4byte	.LASF757
	.byte	0x5
	.uleb128 0x2dc
	.4byte	.LASF758
	.byte	0x5
	.uleb128 0x2dd
	.4byte	.LASF759
	.byte	0x5
	.uleb128 0x2de
	.4byte	.LASF760
	.byte	0x5
	.uleb128 0x2df
	.4byte	.LASF761
	.byte	0x5
	.uleb128 0x2e0
	.4byte	.LASF762
	.byte	0x5
	.uleb128 0x2e1
	.4byte	.LASF763
	.byte	0x5
	.uleb128 0x2e2
	.4byte	.LASF764
	.byte	0x5
	.uleb128 0x2e3
	.4byte	.LASF765
	.byte	0x5
	.uleb128 0x2e4
	.4byte	.LASF766
	.byte	0x5
	.uleb128 0x2e5
	.4byte	.LASF767
	.byte	0x5
	.uleb128 0x2e6
	.4byte	.LASF768
	.byte	0x5
	.uleb128 0x2e7
	.4byte	.LASF769
	.byte	0x5
	.uleb128 0x2e8
	.4byte	.LASF770
	.byte	0x5
	.uleb128 0x2e9
	.4byte	.LASF771
	.byte	0x5
	.uleb128 0x2ea
	.4byte	.LASF772
	.byte	0x5
	.uleb128 0x2eb
	.4byte	.LASF773
	.byte	0x5
	.uleb128 0x2ec
	.4byte	.LASF774
	.byte	0x5
	.uleb128 0x2ed
	.4byte	.LASF775
	.byte	0x5
	.uleb128 0x2ee
	.4byte	.LASF776
	.byte	0x5
	.uleb128 0x2ef
	.4byte	.LASF777
	.byte	0x5
	.uleb128 0x2f0
	.4byte	.LASF778
	.byte	0x5
	.uleb128 0x2f4
	.4byte	.LASF779
	.byte	0x5
	.uleb128 0x2fc
	.4byte	.LASF780
	.byte	0x5
	.uleb128 0x304
	.4byte	.LASF781
	.byte	0x5
	.uleb128 0x314
	.4byte	.LASF782
	.byte	0x5
	.uleb128 0x317
	.4byte	.LASF783
	.byte	0x5
	.uleb128 0x31d
	.4byte	.LASF784
	.byte	0
	.section	.debug_macro,"G",%progbits,wm4.cdefs.h.47.d5f52c0838d768c139d665d47892271a,comdat
.Ldebug_macro17:
	.2byte	0x4
	.byte	0
	.byte	0x5
	.uleb128 0x2f
	.4byte	.LASF786
	.byte	0x5
	.uleb128 0x30
	.4byte	.LASF787
	.byte	0x5
	.uleb128 0x31
	.4byte	.LASF788
	.byte	0x5
	.uleb128 0x34
	.4byte	.LASF789
	.byte	0x5
	.uleb128 0x37
	.4byte	.LASF790
	.byte	0x5
	.uleb128 0x38
	.4byte	.LASF791
	.byte	0x5
	.uleb128 0x3a
	.4byte	.LASF792
	.byte	0x5
	.uleb128 0x3b
	.4byte	.LASF793
	.byte	0x5
	.uleb128 0x3c
	.4byte	.LASF794
	.byte	0x5
	.uleb128 0x3d
	.4byte	.LASF795
	.byte	0x5
	.uleb128 0x40
	.4byte	.LASF796
	.byte	0x5
	.uleb128 0x41
	.4byte	.LASF797
	.byte	0x5
	.uleb128 0x42
	.4byte	.LASF798
	.byte	0x5
	.uleb128 0x4c
	.4byte	.LASF799
	.byte	0x5
	.uleb128 0x4f
	.4byte	.LASF800
	.byte	0x5
	.uleb128 0x55
	.4byte	.LASF801
	.byte	0x5
	.uleb128 0x5c
	.4byte	.LASF802
	.byte	0x5
	.uleb128 0x5d
	.4byte	.LASF803
	.byte	0x5
	.uleb128 0x69
	.4byte	.LASF804
	.byte	0x5
	.uleb128 0x6a
	.4byte	.LASF805
	.byte	0x5
	.uleb128 0x6e
	.4byte	.LASF806
	.byte	0x5
	.uleb128 0x6f
	.4byte	.LASF807
	.byte	0x5
	.uleb128 0x70
	.4byte	.LASF808
	.byte	0x5
	.uleb128 0x73
	.4byte	.LASF809
	.byte	0x5
	.uleb128 0x76
	.4byte	.LASF810
	.byte	0x5
	.uleb128 0x7d
	.4byte	.LASF811
	.byte	0x5
	.uleb128 0x7e
	.4byte	.LASF812
	.byte	0x5
	.uleb128 0x7f
	.4byte	.LASF813
	.byte	0x5
	.uleb128 0x83
	.4byte	.LASF814
	.byte	0x5
	.uleb128 0x8a
	.4byte	.LASF815
	.byte	0x5
	.uleb128 0x8e
	.4byte	.LASF816
	.byte	0x5
	.uleb128 0x8f
	.4byte	.LASF817
	.byte	0x5
	.uleb128 0x92
	.4byte	.LASF818
	.byte	0x5
	.uleb128 0x95
	.4byte	.LASF819
	.byte	0x5
	.uleb128 0x96
	.4byte	.LASF820
	.byte	0x5
	.uleb128 0x97
	.4byte	.LASF821
	.byte	0x5
	.uleb128 0x99
	.4byte	.LASF822
	.byte	0x5
	.uleb128 0x9a
	.4byte	.LASF823
	.byte	0x5
	.uleb128 0x9c
	.4byte	.LASF824
	.byte	0x5
	.uleb128 0x9e
	.4byte	.LASF825
	.byte	0x5
	.uleb128 0xaf
	.4byte	.LASF826
	.byte	0x5
	.uleb128 0xb0
	.4byte	.LASF827
	.byte	0x5
	.uleb128 0xb1
	.4byte	.LASF828
	.byte	0x5
	.uleb128 0xb2
	.4byte	.LASF829
	.byte	0x5
	.uleb128 0xb3
	.4byte	.LASF830
	.byte	0x5
	.uleb128 0xb5
	.4byte	.LASF831
	.byte	0x5
	.uleb128 0xb6
	.4byte	.LASF832
	.byte	0x5
	.uleb128 0xb7
	.4byte	.LASF833
	.byte	0x5
	.uleb128 0xef
	.4byte	.LASF834
	.byte	0x5
	.uleb128 0xfc
	.4byte	.LASF835
	.byte	0x5
	.uleb128 0xfd
	.4byte	.LASF836
	.byte	0x5
	.uleb128 0xfe
	.4byte	.LASF837
	.byte	0x5
	.uleb128 0xff
	.4byte	.LASF838
	.byte	0x5
	.uleb128 0x100
	.4byte	.LASF839
	.byte	0x5
	.uleb128 0x101
	.4byte	.LASF840
	.byte	0x5
	.uleb128 0x102
	.4byte	.LASF841
	.byte	0x5
	.uleb128 0x105
	.4byte	.LASF842
	.byte	0x5
	.uleb128 0x10a
	.4byte	.LASF843
	.byte	0x5
	.uleb128 0x164
	.4byte	.LASF844
	.byte	0x5
	.uleb128 0x176
	.4byte	.LASF845
	.byte	0x5
	.uleb128 0x17c
	.4byte	.LASF846
	.byte	0x5
	.uleb128 0x17d
	.4byte	.LASF847
	.byte	0x5
	.uleb128 0x184
	.4byte	.LASF848
	.byte	0x5
	.uleb128 0x18a
	.4byte	.LASF849
	.byte	0x5
	.uleb128 0x190
	.4byte	.LASF850
	.byte	0x5
	.uleb128 0x191
	.4byte	.LASF851
	.byte	0x5
	.uleb128 0x198
	.4byte	.LASF852
	.byte	0x5
	.uleb128 0x199
	.4byte	.LASF853
	.byte	0x5
	.uleb128 0x1a0
	.4byte	.LASF854
	.byte	0x5
	.uleb128 0x1a6
	.4byte	.LASF855
	.byte	0x5
	.uleb128 0x1ba
	.4byte	.LASF856
	.byte	0x5
	.uleb128 0x1db
	.4byte	.LASF857
	.byte	0x5
	.uleb128 0x1dc
	.4byte	.LASF858
	.byte	0x5
	.uleb128 0x1e3
	.4byte	.LASF859
	.byte	0x5
	.uleb128 0x1e4
	.4byte	.LASF860
	.byte	0x5
	.uleb128 0x1e7
	.4byte	.LASF861
	.byte	0x5
	.uleb128 0x1f1
	.4byte	.LASF862
	.byte	0x5
	.uleb128 0x1f2
	.4byte	.LASF863
	.byte	0x5
	.uleb128 0x1fc
	.4byte	.LASF864
	.byte	0x5
	.uleb128 0x212
	.4byte	.LASF865
	.byte	0x5
	.uleb128 0x214
	.4byte	.LASF866
	.byte	0x5
	.uleb128 0x216
	.4byte	.LASF867
	.byte	0x5
	.uleb128 0x217
	.4byte	.LASF868
	.byte	0x5
	.uleb128 0x219
	.4byte	.LASF869
	.byte	0x5
	.uleb128 0x223
	.4byte	.LASF870
	.byte	0x5
	.uleb128 0x228
	.4byte	.LASF871
	.byte	0x5
	.uleb128 0x22d
	.4byte	.LASF872
	.byte	0x5
	.uleb128 0x230
	.4byte	.LASF873
	.byte	0x5
	.uleb128 0x234
	.4byte	.LASF874
	.byte	0x5
	.uleb128 0x236
	.4byte	.LASF875
	.byte	0x5
	.uleb128 0x259
	.4byte	.LASF876
	.byte	0x5
	.uleb128 0x25d
	.4byte	.LASF877
	.byte	0x5
	.uleb128 0x261
	.4byte	.LASF878
	.byte	0x5
	.uleb128 0x265
	.4byte	.LASF879
	.byte	0x5
	.uleb128 0x269
	.4byte	.LASF880
	.byte	0x5
	.uleb128 0x26d
	.4byte	.LASF881
	.byte	0x5
	.uleb128 0x271
	.4byte	.LASF882
	.byte	0x5
	.uleb128 0x275
	.4byte	.LASF883
	.byte	0x5
	.uleb128 0x27c
	.4byte	.LASF884
	.byte	0x5
	.uleb128 0x27d
	.4byte	.LASF885
	.byte	0x5
	.uleb128 0x27e
	.4byte	.LASF886
	.byte	0x5
	.uleb128 0x27f
	.4byte	.LASF887
	.byte	0x5
	.uleb128 0x280
	.4byte	.LASF888
	.byte	0x5
	.uleb128 0x295
	.4byte	.LASF889
	.byte	0x5
	.uleb128 0x296
	.4byte	.LASF890
	.byte	0x5
	.uleb128 0x2a8
	.4byte	.LASF891
	.byte	0x5
	.uleb128 0x2ae
	.4byte	.LASF892
	.byte	0x5
	.uleb128 0x2b1
	.4byte	.LASF893
	.byte	0x5
	.uleb128 0x2b3
	.4byte	.LASF894
	.byte	0x5
	.uleb128 0x2b7
	.4byte	.LASF895
	.byte	0x5
	.uleb128 0x2b9
	.4byte	.LASF896
	.byte	0x5
	.uleb128 0x2bd
	.4byte	.LASF897
	.byte	0x5
	.uleb128 0x2c0
	.4byte	.LASF898
	.byte	0x5
	.uleb128 0x2c2
	.4byte	.LASF899
	.byte	0x5
	.uleb128 0x2c6
	.4byte	.LASF900
	.byte	0x5
	.uleb128 0x2c8
	.4byte	.LASF901
	.byte	0x5
	.uleb128 0x2ca
	.4byte	.LASF902
	.byte	0x5
	.uleb128 0x2ce
	.4byte	.LASF903
	.byte	0x5
	.uleb128 0x2d1
	.4byte	.LASF904
	.byte	0x5
	.uleb128 0x2d2
	.4byte	.LASF905
	.byte	0
	.section	.debug_macro,"G",%progbits,wm4.string.h.15.dab3980bf35408a4c507182805e2de3a,comdat
.Ldebug_macro18:
	.2byte	0x4
	.byte	0
	.byte	0x5
	.uleb128 0xf
	.4byte	.LASF906
	.byte	0x5
	.uleb128 0x10
	.4byte	.LASF907
	.byte	0
	.section	.debug_macro,"G",%progbits,wm4.stddef.h.161.19e15733342b50ead2919490b095303e,comdat
.Ldebug_macro19:
	.2byte	0x4
	.byte	0
	.byte	0x6
	.uleb128 0xa1
	.4byte	.LASF662
	.byte	0x6
	.uleb128 0xee
	.4byte	.LASF680
	.byte	0x6
	.uleb128 0x15b
	.4byte	.LASF697
	.byte	0x6
	.uleb128 0x191
	.4byte	.LASF698
	.byte	0x5
	.uleb128 0x196
	.4byte	.LASF699
	.byte	0x6
	.uleb128 0x19c
	.4byte	.LASF700
	.byte	0x5
	.uleb128 0x1a1
	.4byte	.LASF701
	.byte	0
	.section	.debug_macro,"G",%progbits,wm4.median.h.15.2ba6f6c5dc5b72f318cc4e4678fb9567,comdat
.Ldebug_macro20:
	.2byte	0x4
	.byte	0
	.byte	0x5
	.uleb128 0xf
	.4byte	.LASF910
	.byte	0x5
	.uleb128 0x18
	.4byte	.LASF911
	.byte	0
	.section	.debug_line,"",%progbits
.Ldebug_line0:
	.section	.debug_str,"MS",%progbits,1
.LASF808:
	.ascii	"__GNUCLIKE___SECTION 1\000"
.LASF585:
	.ascii	"WINT_MIN (__WINT_MIN__)\000"
.LASF183:
	.ascii	"__DECIMAL_DIG__ 17\000"
.LASF363:
	.ascii	"__UHA_FBIT__ 8\000"
.LASF467:
	.ascii	"__SVID_VISIBLE 1\000"
.LASF253:
	.ascii	"__DEC128_EPSILON__ 1E-33DL\000"
.LASF92:
	.ascii	"__INTMAX_C(c) c ## LL\000"
.LASF216:
	.ascii	"__FLT64_DENORM_MIN__ 4.9406564584124654e-324F64\000"
.LASF855:
	.ascii	"__unreachable() __builtin_unreachable()\000"
.LASF382:
	.ascii	"__GCC_ATOMIC_WCHAR_T_LOCK_FREE 2\000"
.LASF374:
	.ascii	"__CHAR_UNSIGNED__ 1\000"
.LASF784:
	.ascii	"_GLOBAL_ATEXIT (_GLOBAL_REENT->_atexit)\000"
.LASF255:
	.ascii	"__SFRACT_FBIT__ 7\000"
.LASF834:
	.ascii	"__weak_symbol __attribute__((__weak__))\000"
.LASF1032:
	.ascii	"__locale_t\000"
.LASF218:
	.ascii	"__FLT64_HAS_INFINITY__ 1\000"
.LASF932:
	.ascii	"__value\000"
.LASF900:
	.ascii	"__requires_exclusive(...) __lock_annotate(exclusive"
	.ascii	"_locks_required(__VA_ARGS__))\000"
.LASF327:
	.ascii	"__LLACCUM_MIN__ (-0X1P31LLK-0X1P31LLK)\000"
.LASF347:
	.ascii	"__UHQ_FBIT__ 16\000"
.LASF1000:
	.ascii	"__sf\000"
.LASF80:
	.ascii	"__PTRDIFF_MAX__ 0x7fffffff\000"
.LASF643:
	.ascii	"_LONG_DOUBLE long double\000"
.LASF541:
	.ascii	"INT_LEAST8_MIN (-__INT_LEAST8_MAX__ - 1)\000"
.LASF518:
	.ascii	"_UINT32_T_DECLARED \000"
.LASF967:
	.ascii	"_read\000"
.LASF91:
	.ascii	"__INTMAX_MAX__ 0x7fffffffffffffffLL\000"
.LASF240:
	.ascii	"__DEC32_SUBNORMAL_MIN__ 0.000001E-95DF\000"
.LASF344:
	.ascii	"__TQ_IBIT__ 0\000"
.LASF212:
	.ascii	"__FLT64_DECIMAL_DIG__ 17\000"
.LASF186:
	.ascii	"__LDBL_MIN__ 2.2250738585072014e-308L\000"
.LASF743:
	.ascii	"_REENT_SIGNAL_SIZE 24\000"
.LASF780:
	.ascii	"_Kmax (sizeof (size_t) << 3)\000"
.LASF14:
	.ascii	"__ATOMIC_CONSUME 1\000"
.LASF320:
	.ascii	"__ULACCUM_FBIT__ 32\000"
.LASF76:
	.ascii	"__WCHAR_MAX__ 0xffffffffU\000"
.LASF828:
	.ascii	"__CONCAT(x,y) __CONCAT1(x,y)\000"
.LASF968:
	.ascii	"_write\000"
.LASF806:
	.ascii	"__GNUCLIKE___TYPEOF 1\000"
.LASF19:
	.ascii	"__SIZEOF_LONG_LONG__ 8\000"
.LASF1011:
	.ascii	"_asctime_buf\000"
.LASF168:
	.ascii	"__DBL_MAX_10_EXP__ 308\000"
.LASF994:
	.ascii	"_cvtlen\000"
.LASF206:
	.ascii	"__FLT64_MANT_DIG__ 53\000"
.LASF267:
	.ascii	"__FRACT_MIN__ (-0.5R-0.5R)\000"
.LASF466:
	.ascii	"__POSIX_VISIBLE 200809\000"
.LASF303:
	.ascii	"__USACCUM_MAX__ 0XFFFFP-8UHK\000"
.LASF237:
	.ascii	"__DEC32_MIN__ 1E-95DF\000"
.LASF95:
	.ascii	"__INTMAX_WIDTH__ 64\000"
.LASF340:
	.ascii	"__SQ_IBIT__ 0\000"
.LASF1049:
	.ascii	"median\000"
.LASF33:
	.ascii	"__SIZE_TYPE__ unsigned int\000"
.LASF243:
	.ascii	"__DEC64_MAX_EXP__ 385\000"
.LASF763:
	.ascii	"_REENT_MP_FREELIST(ptr) ((ptr)->_freelist)\000"
.LASF159:
	.ascii	"__FLT_HAS_DENORM__ 1\000"
.LASF42:
	.ascii	"__INT8_TYPE__ signed char\000"
.LASF200:
	.ascii	"__FLT32_MIN__ 1.1754943508222875e-38F32\000"
.LASF302:
	.ascii	"__USACCUM_MIN__ 0.0UHK\000"
.LASF198:
	.ascii	"__FLT32_DECIMAL_DIG__ 9\000"
.LASF179:
	.ascii	"__LDBL_MIN_EXP__ (-1021)\000"
.LASF177:
	.ascii	"__LDBL_MANT_DIG__ 53\000"
.LASF885:
	.ascii	"_Nullable \000"
.LASF941:
	.ascii	"__tm\000"
.LASF1026:
	.ascii	"_wcsrtombs_state\000"
.LASF928:
	.ascii	"wint_t\000"
.LASF942:
	.ascii	"__tm_sec\000"
.LASF120:
	.ascii	"__UINT8_C(c) c\000"
.LASF43:
	.ascii	"__INT16_TYPE__ short int\000"
.LASF840:
	.ascii	"__aligned(x) __attribute__((__aligned__(x)))\000"
.LASF1019:
	.ascii	"_l64a_buf\000"
.LASF213:
	.ascii	"__FLT64_MAX__ 1.7976931348623157e+308F64\000"
.LASF797:
	.ascii	"__unbounded \000"
.LASF498:
	.ascii	"__INT8 \"hh\"\000"
.LASF375:
	.ascii	"__GCC_HAVE_SYNC_COMPARE_AND_SWAP_1 1\000"
.LASF548:
	.ascii	"INT_LEAST16_MAX (__INT_LEAST16_MAX__)\000"
.LASF1053:
	.ascii	"median_filter\000"
.LASF566:
	.ascii	"INT_FAST16_MAX (__INT_FAST16_MAX__)\000"
.LASF290:
	.ascii	"__ULLFRACT_FBIT__ 64\000"
.LASF607:
	.ascii	"_LDBL_EQ_DBL 1\000"
.LASF961:
	.ascii	"_size\000"
.LASF760:
	.ascii	"_REENT_MP_RESULT(ptr) ((ptr)->_result)\000"
.LASF61:
	.ascii	"__INT_FAST64_TYPE__ long long int\000"
.LASF36:
	.ascii	"__WINT_TYPE__ unsigned int\000"
.LASF539:
	.ascii	"INT8_MAX (__INT8_MAX__)\000"
.LASF976:
	.ascii	"_lock\000"
.LASF664:
	.ascii	"__SIZE_T__ \000"
.LASF580:
	.ascii	"PTRDIFF_MAX (__PTRDIFF_MAX__)\000"
.LASF197:
	.ascii	"__FLT32_MAX_10_EXP__ 38\000"
.LASF860:
	.ascii	"__exported __attribute__((__visibility__(\"default\""
	.ascii	")))\000"
.LASF263:
	.ascii	"__USFRACT_MAX__ 0XFFP-8UHR\000"
.LASF812:
	.ascii	"__GNUCLIKE_BUILTIN_STDARG 1\000"
.LASF697:
	.ascii	"__need_wchar_t\000"
.LASF194:
	.ascii	"__FLT32_MIN_EXP__ (-125)\000"
.LASF1021:
	.ascii	"_getdate_err\000"
.LASF1007:
	.ascii	"_mult\000"
.LASF545:
	.ascii	"INT16_MAX (__INT16_MAX__)\000"
.LASF280:
	.ascii	"__ULFRACT_FBIT__ 32\000"
.LASF209:
	.ascii	"__FLT64_MIN_10_EXP__ (-307)\000"
.LASF679:
	.ascii	"__size_t \000"
.LASF355:
	.ascii	"__HA_FBIT__ 7\000"
.LASF533:
	.ascii	"__int_fast32_t_defined 1\000"
.LASF134:
	.ascii	"__INT_FAST64_WIDTH__ 64\000"
.LASF692:
	.ascii	"___int_wchar_t_h \000"
.LASF588:
	.ascii	"INT16_C(x) __INT16_C(x)\000"
.LASF259:
	.ascii	"__SFRACT_EPSILON__ 0x1P-7HR\000"
.LASF827:
	.ascii	"__CONCAT1(x,y) x ## y\000"
.LASF668:
	.ascii	"_T_SIZE \000"
.LASF114:
	.ascii	"__INT32_C(c) c ## L\000"
.LASF349:
	.ascii	"__USQ_FBIT__ 32\000"
.LASF28:
	.ascii	"__ORDER_BIG_ENDIAN__ 4321\000"
.LASF339:
	.ascii	"__SQ_FBIT__ 31\000"
.LASF369:
	.ascii	"__UTA_FBIT__ 64\000"
.LASF826:
	.ascii	"__P(protos) protos\000"
.LASF773:
	.ascii	"_REENT_MBSRTOWCS_STATE(ptr) ((ptr)->_new._reent._mb"
	.ascii	"srtowcs_state)\000"
.LASF1038:
	.ascii	"pair_t\000"
.LASF510:
	.ascii	"_SYS__STDINT_H \000"
.LASF560:
	.ascii	"INT_LEAST64_MAX (__INT_LEAST64_MAX__)\000"
.LASF208:
	.ascii	"__FLT64_MIN_EXP__ (-1021)\000"
.LASF910:
	.ascii	"MEDIAN_H \000"
.LASF89:
	.ascii	"__PTRDIFF_WIDTH__ 32\000"
.LASF872:
	.ascii	"__weak_reference(sym,alias) __asm__(\".weak \" #ali"
	.ascii	"as); __asm__(\".equ \" #alias \", \" #sym)\000"
.LASF441:
	.ascii	"STM32F411xE 1\000"
.LASF135:
	.ascii	"__UINT_FAST8_MAX__ 0xffffffffU\000"
.LASF239:
	.ascii	"__DEC32_EPSILON__ 1E-6DF\000"
.LASF583:
	.ascii	"WCHAR_MAX (__WCHAR_MAX__)\000"
.LASF929:
	.ascii	"__wch\000"
.LASF749:
	.ascii	"_REENT_CHECK_MP(ptr) \000"
.LASF316:
	.ascii	"__LACCUM_IBIT__ 32\000"
.LASF542:
	.ascii	"INT_LEAST8_MAX (__INT_LEAST8_MAX__)\000"
.LASF82:
	.ascii	"__SCHAR_WIDTH__ 8\000"
.LASF599:
	.ascii	"__NEWLIB_H__ 1\000"
.LASF130:
	.ascii	"__INT_FAST16_WIDTH__ 32\000"
.LASF416:
	.ascii	"__VFP_FP__ 1\000"
.LASF508:
	.ascii	"__LEAST32 \"l\"\000"
.LASF501:
	.ascii	"__INT64 \"ll\"\000"
.LASF139:
	.ascii	"__INTPTR_MAX__ 0x7fffffff\000"
.LASF964:
	.ascii	"_file\000"
.LASF618:
	.ascii	"__RAND_MAX\000"
.LASF136:
	.ascii	"__UINT_FAST16_MAX__ 0xffffffffU\000"
.LASF559:
	.ascii	"INT_LEAST64_MIN (-__INT_LEAST64_MAX__ - 1)\000"
.LASF951:
	.ascii	"_on_exit_args\000"
.LASF1039:
	.ascii	"median_context\000"
.LASF793:
	.ascii	"__attribute_pure__ \000"
.LASF884:
	.ascii	"_Nonnull \000"
.LASF450:
	.ascii	"__GNUC_PREREQ(maj,min) ((__GNUC__ << 16) + __GNUC_M"
	.ascii	"INOR__ >= ((maj) << 16) + (min))\000"
.LASF272:
	.ascii	"__UFRACT_MIN__ 0.0UR\000"
.LASF744:
	.ascii	"_N_LISTS 30\000"
.LASF525:
	.ascii	"_INTPTR_T_DECLARED \000"
.LASF600:
	.ascii	"_WANT_IO_LONG_LONG 1\000"
.LASF232:
	.ascii	"__FLT32X_HAS_INFINITY__ 1\000"
.LASF568:
	.ascii	"INT_FAST32_MIN (-__INT_FAST32_MAX__ - 1)\000"
.LASF619:
	.ascii	"__RAND_MAX 0x7fffffff\000"
.LASF878:
	.ascii	"__RCSID_SOURCE(s) struct __hack\000"
.LASF757:
	.ascii	"_REENT_RAND48_SEED(ptr) ((ptr)->_new._reent._r48._s"
	.ascii	"eed)\000"
.LASF54:
	.ascii	"__UINT_LEAST8_TYPE__ unsigned char\000"
.LASF1010:
	.ascii	"_strtok_last\000"
.LASF893:
	.ascii	"__locks_exclusive(...) __lock_annotate(exclusive_lo"
	.ascii	"ck_function(__VA_ARGS__))\000"
.LASF305:
	.ascii	"__ACCUM_FBIT__ 15\000"
.LASF717:
	.ascii	"__lock_release(lock) __retarget_lock_release(lock)\000"
.LASF1022:
	.ascii	"_mbrlen_state\000"
.LASF917:
	.ascii	"long int\000"
.LASF709:
	.ascii	"__lock_init(lock) __retarget_lock_init(&lock)\000"
.LASF519:
	.ascii	"__int32_t_defined 1\000"
.LASF1033:
	.ascii	"_impure_ptr\000"
.LASF133:
	.ascii	"__INT_FAST64_MAX__ 0x7fffffffffffffffLL\000"
.LASF226:
	.ascii	"__FLT32X_DECIMAL_DIG__ 17\000"
.LASF991:
	.ascii	"_result_k\000"
.LASF233:
	.ascii	"__FLT32X_HAS_QUIET_NAN__ 1\000"
.LASF859:
	.ascii	"__null_sentinel __attribute__((__sentinel__))\000"
.LASF229:
	.ascii	"__FLT32X_EPSILON__ 2.2204460492503131e-16F32x\000"
.LASF477:
	.ascii	"___int_least16_t_defined 1\000"
.LASF249:
	.ascii	"__DEC128_MIN_EXP__ (-6142)\000"
.LASF58:
	.ascii	"__INT_FAST8_TYPE__ int\000"
.LASF647:
	.ascii	"_NOINLINE __attribute__ ((__noinline__))\000"
.LASF1056:
	.ascii	"__builtin_memset\000"
.LASF663:
	.ascii	"__size_t__ \000"
.LASF756:
	.ascii	"_REENT_RAND_NEXT(ptr) ((ptr)->_new._reent._rand_nex"
	.ascii	"t)\000"
.LASF94:
	.ascii	"__UINTMAX_C(c) c ## ULL\000"
.LASF32:
	.ascii	"__SIZEOF_POINTER__ 4\000"
.LASF571:
	.ascii	"INT_FAST64_MIN (-__INT_FAST64_MAX__ - 1)\000"
.LASF1012:
	.ascii	"_localtime_buf\000"
.LASF378:
	.ascii	"__GCC_ATOMIC_BOOL_LOCK_FREE 2\000"
.LASF959:
	.ascii	"__sbuf\000"
.LASF424:
	.ascii	"__ARM_NEON__\000"
.LASF537:
	.ascii	"UINTPTR_MAX (__UINTPTR_MAX__)\000"
.LASF196:
	.ascii	"__FLT32_MAX_EXP__ 128\000"
.LASF296:
	.ascii	"__SACCUM_IBIT__ 8\000"
.LASF361:
	.ascii	"__TA_FBIT__ 63\000"
.LASF427:
	.ascii	"__THUMB_INTERWORK__ 1\000"
.LASF293:
	.ascii	"__ULLFRACT_MAX__ 0XFFFFFFFFFFFFFFFFP-64ULLR\000"
.LASF954:
	.ascii	"_fntypes\000"
.LASF521:
	.ascii	"_UINT64_T_DECLARED \000"
.LASF675:
	.ascii	"_SIZE_T_DECLARED \000"
.LASF40:
	.ascii	"__CHAR32_TYPE__ long unsigned int\000"
.LASF422:
	.ascii	"__ARM_FEATURE_FP16_VECTOR_ARITHMETIC\000"
.LASF457:
	.ascii	"_POSIX_C_SOURCE 200809L\000"
.LASF825:
	.ascii	"__CC_SUPPORTS_DYNAMIC_ARRAY_INIT 1\000"
.LASF137:
	.ascii	"__UINT_FAST32_MAX__ 0xffffffffU\000"
.LASF946:
	.ascii	"__tm_mon\000"
.LASF152:
	.ascii	"__FLT_MAX_EXP__ 128\000"
.LASF741:
	.ascii	"_REENT_EMERGENCY_SIZE 25\000"
.LASF644:
	.ascii	"_PARAMS(paramlist) paramlist\000"
.LASF868:
	.ascii	"__strfmonlike(fmtarg,firstvararg) __attribute__((__"
	.ascii	"format__ (__strfmon__, fmtarg, firstvararg)))\000"
.LASF248:
	.ascii	"__DEC128_MANT_DIG__ 34\000"
.LASF623:
	.ascii	"_READ_WRITE_BUFSIZE_TYPE int\000"
.LASF22:
	.ascii	"__SIZEOF_DOUBLE__ 8\000"
.LASF115:
	.ascii	"__INT_LEAST32_WIDTH__ 32\000"
.LASF448:
	.ascii	"__NEWLIB_MINOR__ 5\000"
.LASF222:
	.ascii	"__FLT32X_MIN_EXP__ (-1021)\000"
.LASF503:
	.ascii	"__FAST16 \000"
.LASF464:
	.ascii	"__LARGEFILE_VISIBLE 0\000"
.LASF245:
	.ascii	"__DEC64_MAX__ 9.999999999999999E384DD\000"
.LASF447:
	.ascii	"__NEWLIB__ 2\000"
.LASF699:
	.ascii	"NULL ((void *)0)\000"
.LASF438:
	.ascii	"__weak __attribute__((weak))\000"
.LASF789:
	.ascii	"__ASMNAME(cname) __XSTRING (__USER_LABEL_PREFIX__) "
	.ascii	"cname\000"
.LASF154:
	.ascii	"__FLT_DECIMAL_DIG__ 9\000"
.LASF909:
	.ascii	"_STRINGS_H_ \000"
.LASF1009:
	.ascii	"_unused_rand\000"
.LASF512:
	.ascii	"_UINT8_T_DECLARED \000"
.LASF913:
	.ascii	"signed char\000"
.LASF898:
	.ascii	"__asserts_exclusive(...) __lock_annotate(assert_exc"
	.ascii	"lusive_lock(__VA_ARGS__))\000"
.LASF575:
	.ascii	"INTMAX_MIN (-INTMAX_MAX - 1)\000"
.LASF423:
	.ascii	"__ARM_FEATURE_FMA 1\000"
.LASF790:
	.ascii	"__ptr_t void *\000"
.LASF373:
	.ascii	"__GNUC_STDC_INLINE__ 1\000"
.LASF972:
	.ascii	"_nbuf\000"
.LASF582:
	.ascii	"WCHAR_MIN (__WCHAR_MIN__)\000"
.LASF265:
	.ascii	"__FRACT_FBIT__ 15\000"
.LASF161:
	.ascii	"__FLT_HAS_QUIET_NAN__ 1\000"
.LASF7:
	.ascii	"__GNUC_PATCHLEVEL__ 1\000"
.LASF381:
	.ascii	"__GCC_ATOMIC_CHAR32_T_LOCK_FREE 2\000"
.LASF843:
	.ascii	"__alloc_align(x) __attribute__((__alloc_align__(x))"
	.ascii	")\000"
.LASF121:
	.ascii	"__UINT_LEAST16_MAX__ 0xffff\000"
.LASF982:
	.ascii	"_stdout\000"
.LASF897:
	.ascii	"__unlocks(...) __lock_annotate(unlock_function(__VA"
	.ascii	"_ARGS__))\000"
.LASF761:
	.ascii	"_REENT_MP_RESULT_K(ptr) ((ptr)->_result_k)\000"
.LASF442:
	.ascii	"_STDINT_H \000"
.LASF857:
	.ascii	"__predict_true(exp) __builtin_expect((exp), 1)\000"
.LASF718:
	.ascii	"__lock_release_recursive(lock) __retarget_lock_rele"
	.ascii	"ase_recursive(lock)\000"
.LASF211:
	.ascii	"__FLT64_MAX_10_EXP__ 308\000"
.LASF18:
	.ascii	"__SIZEOF_LONG__ 4\000"
.LASF1050:
	.ascii	"GNU C11 7.2.1 20170904 (release) [ARM/embedded-7-br"
	.ascii	"anch revision 255204] -mcpu=cortex-m4 -mthumb -mflo"
	.ascii	"at-abi=hard -mfpu=fpv4-sp-d16 -g3 -Og -fmessage-len"
	.ascii	"gth=0 -ffunction-sections -fmessage-length=0\000"
.LASF674:
	.ascii	"_BSD_SIZE_T_DEFINED_ \000"
.LASF64:
	.ascii	"__UINT_FAST32_TYPE__ unsigned int\000"
.LASF914:
	.ascii	"unsigned char\000"
.LASF3:
	.ascii	"__STDC_UTF_32__ 1\000"
.LASF21:
	.ascii	"__SIZEOF_FLOAT__ 4\000"
.LASF230:
	.ascii	"__FLT32X_DENORM_MIN__ 4.9406564584124654e-324F32x\000"
.LASF817:
	.ascii	"__GNUCLIKE_MATH_BUILTIN_RELOPS \000"
.LASF153:
	.ascii	"__FLT_MAX_10_EXP__ 38\000"
.LASF41:
	.ascii	"__SIG_ATOMIC_TYPE__ int\000"
.LASF252:
	.ascii	"__DEC128_MAX__ 9.999999999999999999999999999999999E"
	.ascii	"6144DL\000"
.LASF268:
	.ascii	"__FRACT_MAX__ 0X7FFFP-15R\000"
.LASF142:
	.ascii	"__GCC_IEC_559 0\000"
.LASF131:
	.ascii	"__INT_FAST32_MAX__ 0x7fffffff\000"
.LASF10:
	.ascii	"__ATOMIC_SEQ_CST 5\000"
.LASF622:
	.ascii	"_READ_WRITE_RETURN_TYPE int\000"
.LASF986:
	.ascii	"_unspecified_locale_info\000"
.LASF706:
	.ascii	"_LOCK_RECURSIVE_T _LOCK_T\000"
.LASF875:
	.ascii	"__sym_default(sym,impl,verid) __asm__(\".symver \" "
	.ascii	"#impl \", \" #sym \"@@\" #verid)\000"
.LASF563:
	.ascii	"INT_FAST8_MAX (__INT_FAST8_MAX__)\000"
.LASF979:
	.ascii	"_reent\000"
.LASF576:
	.ascii	"UINTMAX_MAX (__UINTMAX_MAX__)\000"
.LASF343:
	.ascii	"__TQ_FBIT__ 127\000"
.LASF949:
	.ascii	"__tm_yday\000"
.LASF254:
	.ascii	"__DEC128_SUBNORMAL_MIN__ 0.000000000000000000000000"
	.ascii	"000000001E-6143DL\000"
.LASF605:
	.ascii	"_HAVE_LONG_DOUBLE 1\000"
.LASF534:
	.ascii	"__int_fast64_t_defined 1\000"
.LASF810:
	.ascii	"__GNUCLIKE_BUILTIN_CONSTANT_P 1\000"
.LASF632:
	.ascii	"_VOLATILE volatile\000"
.LASF20:
	.ascii	"__SIZEOF_SHORT__ 2\000"
.LASF330:
	.ascii	"__ULLACCUM_FBIT__ 32\000"
.LASF1048:
	.ascii	"scanold\000"
.LASF1030:
	.ascii	"_unused\000"
.LASF639:
	.ascii	"_EXFNPTR(name,proto) (* name) proto\000"
.LASF724:
	.ascii	"_CLOCK_T_ unsigned long\000"
.LASF362:
	.ascii	"__TA_IBIT__ 64\000"
.LASF881:
	.ascii	"__DECONST(type,var) ((type)(__uintptr_t)(const void"
	.ascii	" *)(var))\000"
.LASF444:
	.ascii	"_SYS_FEATURES_H \000"
.LASF698:
	.ascii	"NULL\000"
.LASF1046:
	.ascii	"successor\000"
.LASF984:
	.ascii	"_inc\000"
.LASF1037:
	.ascii	"value\000"
.LASF23:
	.ascii	"__SIZEOF_LONG_DOUBLE__ 8\000"
.LASF390:
	.ascii	"__PRAGMA_REDEFINE_EXTNAME 1\000"
.LASF35:
	.ascii	"__WCHAR_TYPE__ unsigned int\000"
.LASF485:
	.ascii	"char\000"
.LASF366:
	.ascii	"__USA_IBIT__ 16\000"
.LASF376:
	.ascii	"__GCC_HAVE_SYNC_COMPARE_AND_SWAP_2 1\000"
.LASF1055:
	.ascii	"memset\000"
.LASF581:
	.ascii	"PTRDIFF_MIN (-PTRDIFF_MAX - 1)\000"
.LASF861:
	.ascii	"__hidden __attribute__((__visibility__(\"hidden\"))"
	.ascii	")\000"
.LASF958:
	.ascii	"_fns\000"
.LASF65:
	.ascii	"__UINT_FAST64_TYPE__ long long unsigned int\000"
.LASF772:
	.ascii	"_REENT_MBRTOWC_STATE(ptr) ((ptr)->_new._reent._mbrt"
	.ascii	"owc_state)\000"
.LASF722:
	.ascii	"_WINT_T \000"
.LASF156:
	.ascii	"__FLT_MIN__ 1.1754943508222875e-38F\000"
.LASF906:
	.ascii	"__need_size_t \000"
.LASF1041:
	.ascii	"small\000"
.LASF579:
	.ascii	"SIG_ATOMIC_MAX (__STDINT_EXP(INT_MAX))\000"
.LASF849:
	.ascii	"__noinline __attribute__ ((__noinline__))\000"
.LASF754:
	.ascii	"_REENT_CHECK_SIGNAL_BUF(ptr) \000"
.LASF235:
	.ascii	"__DEC32_MIN_EXP__ (-94)\000"
.LASF908:
	.ascii	"_XLOCALE_H \000"
.LASF596:
	.ascii	"_GCC_WRAP_STDINT_H \000"
.LASF922:
	.ascii	"__uint16_t\000"
.LASF439:
	.ascii	"__packed \"__attribute__((__packed__))\"\000"
.LASF262:
	.ascii	"__USFRACT_MIN__ 0.0UHR\000"
.LASF838:
	.ascii	"__used __attribute__((__used__))\000"
.LASF844:
	.ascii	"__generic(expr,t,yes,no) _Generic(expr, t: yes, def"
	.ascii	"ault: no)\000"
.LASF425:
	.ascii	"__ARM_NEON\000"
.LASF766:
	.ascii	"_REENT_EMERGENCY(ptr) ((ptr)->_emergency)\000"
.LASF809:
	.ascii	"__GNUCLIKE_CTOR_SECTION_HANDLING 1\000"
.LASF103:
	.ascii	"__UINT8_MAX__ 0xff\000"
.LASF473:
	.ascii	"___int16_t_defined 1\000"
.LASF782:
	.ascii	"_REENT _impure_ptr\000"
.LASF181:
	.ascii	"__LDBL_MAX_EXP__ 1024\000"
.LASF981:
	.ascii	"_stdin\000"
.LASF440:
	.ascii	"USE_HAL_DRIVER 1\000"
.LASF513:
	.ascii	"__int8_t_defined 1\000"
.LASF174:
	.ascii	"__DBL_HAS_DENORM__ 1\000"
.LASF716:
	.ascii	"__lock_try_acquire_recursive(lock) __retarget_lock_"
	.ascii	"try_acquire_recursive(lock)\000"
.LASF820:
	.ascii	"__CC_SUPPORTS___INLINE 1\000"
.LASF602:
	.ascii	"_MB_LEN_MAX 1\000"
.LASF574:
	.ascii	"INTMAX_MAX (__INTMAX_MAX__)\000"
.LASF551:
	.ascii	"INT32_MAX (__INT32_MAX__)\000"
.LASF70:
	.ascii	"__GXX_ABI_VERSION 1011\000"
.LASF359:
	.ascii	"__DA_FBIT__ 31\000"
.LASF654:
	.ascii	"_T_PTRDIFF_ \000"
.LASF110:
	.ascii	"__INT_LEAST16_MAX__ 0x7fff\000"
.LASF633:
	.ascii	"_SIGNED signed\000"
.LASF158:
	.ascii	"__FLT_DENORM_MIN__ 1.4012984643248171e-45F\000"
.LASF506:
	.ascii	"__LEAST8 \"hh\"\000"
.LASF854:
	.ascii	"__returns_twice __attribute__((__returns_twice__))\000"
.LASF901:
	.ascii	"__requires_shared(...) __lock_annotate(shared_locks"
	.ascii	"_required(__VA_ARGS__))\000"
.LASF626:
	.ascii	"_END_STD_C \000"
.LASF788:
	.ascii	"__THROW \000"
.LASF69:
	.ascii	"__has_include_next(STR) __has_include_next__(STR)\000"
.LASF549:
	.ascii	"UINT_LEAST16_MAX (__UINT_LEAST16_MAX__)\000"
.LASF124:
	.ascii	"__UINT32_C(c) c ## UL\000"
.LASF312:
	.ascii	"__UACCUM_MIN__ 0.0UK\000"
.LASF886:
	.ascii	"_Null_unspecified \000"
.LASF157:
	.ascii	"__FLT_EPSILON__ 1.1920928955078125e-7F\000"
.LASF830:
	.ascii	"__XSTRING(x) __STRING(x)\000"
.LASF689:
	.ascii	"_WCHAR_T_DEFINED_ \000"
.LASF610:
	.ascii	"_WIDE_ORIENT 1\000"
.LASF34:
	.ascii	"__PTRDIFF_TYPE__ int\000"
.LASF799:
	.ascii	"__has_extension __has_feature\000"
.LASF811:
	.ascii	"__GNUCLIKE_BUILTIN_VARARGS 1\000"
.LASF314:
	.ascii	"__UACCUM_EPSILON__ 0x1P-16UK\000"
.LASF554:
	.ascii	"INT_LEAST32_MAX (__INT_LEAST32_MAX__)\000"
.LASF755:
	.ascii	"_REENT_SIGNGAM(ptr) ((ptr)->_new._reent._gamma_sign"
	.ascii	"gam)\000"
.LASF553:
	.ascii	"INT_LEAST32_MIN (-__INT_LEAST32_MAX__ - 1)\000"
.LASF383:
	.ascii	"__GCC_ATOMIC_SHORT_LOCK_FREE 2\000"
.LASF693:
	.ascii	"__INT_WCHAR_T_H \000"
.LASF876:
	.ascii	"__FBSDID(s) struct __hack\000"
.LASF300:
	.ascii	"__USACCUM_FBIT__ 8\000"
.LASF387:
	.ascii	"__GCC_ATOMIC_TEST_AND_SET_TRUEVAL 1\000"
.LASF683:
	.ascii	"_WCHAR_T \000"
.LASF315:
	.ascii	"__LACCUM_FBIT__ 31\000"
.LASF759:
	.ascii	"_REENT_RAND48_ADD(ptr) ((ptr)->_new._reent._r48._ad"
	.ascii	"d)\000"
.LASF205:
	.ascii	"__FLT32_HAS_QUIET_NAN__ 1\000"
.LASF616:
	.ascii	"__OBSOLETE_MATH __OBSOLETE_MATH_DEFAULT\000"
.LASF678:
	.ascii	"_SIZET_ \000"
.LASF190:
	.ascii	"__LDBL_HAS_INFINITY__ 1\000"
.LASF1044:
	.ascii	"datum\000"
.LASF238:
	.ascii	"__DEC32_MAX__ 9.999999E96DF\000"
.LASF535:
	.ascii	"INTPTR_MIN (-__INTPTR_MAX__ - 1)\000"
.LASF431:
	.ascii	"__ARM_ARCH_EXT_IDIV__ 1\000"
.LASF685:
	.ascii	"_T_WCHAR \000"
.LASF847:
	.ascii	"__pure __attribute__((__pure__))\000"
.LASF862:
	.ascii	"__offsetof(type,field) offsetof(type, field)\000"
.LASF346:
	.ascii	"__UQQ_IBIT__ 0\000"
.LASF97:
	.ascii	"__SIG_ATOMIC_MIN__ (-__SIG_ATOMIC_MAX__ - 1)\000"
.LASF119:
	.ascii	"__UINT_LEAST8_MAX__ 0xff\000"
.LASF242:
	.ascii	"__DEC64_MIN_EXP__ (-382)\000"
.LASF688:
	.ascii	"_BSD_WCHAR_T_ \000"
.LASF1042:
	.ascii	"buffer\000"
.LASF765:
	.ascii	"_REENT_TM(ptr) (&(ptr)->_new._reent._localtime_buf)"
	.ascii	"\000"
.LASF162:
	.ascii	"__FP_FAST_FMAF 1\000"
.LASF578:
	.ascii	"SIG_ATOMIC_MIN (-__STDINT_EXP(INT_MAX) - 1)\000"
.LASF966:
	.ascii	"_cookie\000"
.LASF514:
	.ascii	"_INT16_T_DECLARED \000"
.LASF992:
	.ascii	"_p5s\000"
.LASF1036:
	.ascii	"point\000"
.LASF141:
	.ascii	"__UINTPTR_MAX__ 0xffffffffU\000"
.LASF939:
	.ascii	"_wds\000"
.LASF112:
	.ascii	"__INT_LEAST16_WIDTH__ 16\000"
.LASF530:
	.ascii	"__int_least64_t_defined 1\000"
.LASF146:
	.ascii	"__DEC_EVAL_METHOD__ 2\000"
.LASF731:
	.ascii	"_ATEXIT_INIT {_NULL, 0, {_NULL}, {{_NULL}, {_NULL},"
	.ascii	" 0, 0}}\000"
.LASF1031:
	.ascii	"__lock\000"
.LASF998:
	.ascii	"_sig_func\000"
.LASF247:
	.ascii	"__DEC64_SUBNORMAL_MIN__ 0.000000000000001E-383DD\000"
.LASF264:
	.ascii	"__USFRACT_EPSILON__ 0x1P-8UHR\000"
.LASF460:
	.ascii	"__ATFILE_VISIBLE 1\000"
.LASF708:
	.ascii	"__LOCK_INIT_RECURSIVE(class,lock) __LOCK_INIT(class"
	.ascii	",lock)\000"
.LASF260:
	.ascii	"__USFRACT_FBIT__ 8\000"
.LASF328:
	.ascii	"__LLACCUM_MAX__ 0X7FFFFFFFFFFFFFFFP-31LLK\000"
.LASF974:
	.ascii	"_offset\000"
.LASF658:
	.ascii	"_BSD_PTRDIFF_T_ \000"
.LASF995:
	.ascii	"_cvtbuf\000"
.LASF372:
	.ascii	"__USER_LABEL_PREFIX__ \000"
.LASF106:
	.ascii	"__UINT64_MAX__ 0xffffffffffffffffULL\000"
.LASF1004:
	.ascii	"_iobs\000"
.LASF592:
	.ascii	"INT64_C(x) __INT64_C(x)\000"
.LASF458:
	.ascii	"_ATFILE_SOURCE\000"
.LASF565:
	.ascii	"INT_FAST16_MIN (-__INT_FAST16_MAX__ - 1)\000"
.LASF1:
	.ascii	"__STDC_VERSION__ 201112L\000"
.LASF768:
	.ascii	"_REENT_MBLEN_STATE(ptr) ((ptr)->_new._reent._mblen_"
	.ascii	"state)\000"
.LASF896:
	.ascii	"__trylocks_shared(...) __lock_annotate(shared_trylo"
	.ascii	"ck_function(__VA_ARGS__))\000"
.LASF107:
	.ascii	"__INT_LEAST8_MAX__ 0x7f\000"
.LASF388:
	.ascii	"__GCC_ATOMIC_POINTER_LOCK_FREE 2\000"
.LASF395:
	.ascii	"__ARM_FEATURE_QBIT 1\000"
.LASF402:
	.ascii	"__ARM_FEATURE_CLZ 1\000"
.LASF713:
	.ascii	"__lock_acquire(lock) __retarget_lock_acquire(lock)\000"
.LASF550:
	.ascii	"INT32_MIN (-__INT32_MAX__ - 1)\000"
.LASF894:
	.ascii	"__locks_shared(...) __lock_annotate(shared_lock_fun"
	.ascii	"ction(__VA_ARGS__))\000"
.LASF952:
	.ascii	"_fnargs\000"
.LASF720:
	.ascii	"unsigned signed\000"
.LASF496:
	.ascii	"_INTPTR_EQ_INT \000"
.LASF406:
	.ascii	"__ARM_SIZEOF_WCHAR_T 4\000"
.LASF224:
	.ascii	"__FLT32X_MAX_EXP__ 1024\000"
.LASF68:
	.ascii	"__has_include(STR) __has_include__(STR)\000"
.LASF123:
	.ascii	"__UINT_LEAST32_MAX__ 0xffffffffUL\000"
.LASF172:
	.ascii	"__DBL_EPSILON__ ((double)2.2204460492503131e-16L)\000"
.LASF277:
	.ascii	"__LFRACT_MIN__ (-0.5LR-0.5LR)\000"
.LASF800:
	.ascii	"__has_feature(x) 0\000"
.LASF118:
	.ascii	"__INT_LEAST64_WIDTH__ 64\000"
.LASF160:
	.ascii	"__FLT_HAS_INFINITY__ 1\000"
.LASF308:
	.ascii	"__ACCUM_MAX__ 0X7FFFFFFFP-15K\000"
.LASF99:
	.ascii	"__INT8_MAX__ 0x7f\000"
.LASF707:
	.ascii	"__LOCK_INIT(class,lock) extern struct __lock __lock"
	.ascii	"_ ## lock; class _LOCK_T lock = &__lock_ ## lock\000"
.LASF389:
	.ascii	"__GCC_HAVE_DWARF2_CFI_ASM 1\000"
.LASF472:
	.ascii	"___int8_t_defined 1\000"
.LASF257:
	.ascii	"__SFRACT_MIN__ (-0.5HR-0.5HR)\000"
.LASF918:
	.ascii	"long unsigned int\000"
.LASF358:
	.ascii	"__SA_IBIT__ 16\000"
.LASF184:
	.ascii	"__LDBL_DECIMAL_DIG__ 17\000"
.LASF483:
	.ascii	"signed\000"
.LASF143:
	.ascii	"__GCC_IEC_559_COMPLEX 0\000"
.LASF225:
	.ascii	"__FLT32X_MAX_10_EXP__ 308\000"
.LASF5:
	.ascii	"__GNUC__ 7\000"
.LASF418:
	.ascii	"__ARM_FP16_FORMAT_IEEE\000"
.LASF47:
	.ascii	"__UINT16_TYPE__ short unsigned int\000"
.LASF454:
	.ascii	"_POSIX_SOURCE\000"
.LASF794:
	.ascii	"__attribute_format_strfmon__(a,b) \000"
.LASF105:
	.ascii	"__UINT32_MAX__ 0xffffffffUL\000"
.LASF988:
	.ascii	"__sdidinit\000"
.LASF236:
	.ascii	"__DEC32_MAX_EXP__ 97\000"
.LASF667:
	.ascii	"_T_SIZE_ \000"
.LASF145:
	.ascii	"__FLT_EVAL_METHOD_TS_18661_3__ 0\000"
.LASF792:
	.ascii	"__attribute_malloc__ \000"
.LASF494:
	.ascii	"int +2\000"
.LASF586:
	.ascii	"INT8_C(x) __INT8_C(x)\000"
.LASF62:
	.ascii	"__UINT_FAST8_TYPE__ unsigned int\000"
.LASF326:
	.ascii	"__LLACCUM_IBIT__ 32\000"
.LASF269:
	.ascii	"__FRACT_EPSILON__ 0x1P-15R\000"
.LASF902:
	.ascii	"__requires_unlocked(...) __lock_annotate(locks_excl"
	.ascii	"uded(__VA_ARGS__))\000"
.LASF101:
	.ascii	"__INT32_MAX__ 0x7fffffffL\000"
.LASF845:
	.ascii	"__min_size(x) static (x)\000"
.LASF435:
	.ascii	"__GXX_TYPEINFO_EQUALITY_INLINE 0\000"
.LASF116:
	.ascii	"__INT_LEAST64_MAX__ 0x7fffffffffffffffLL\000"
.LASF640:
	.ascii	"_DEFUN(name,arglist,args) name(args)\000"
.LASF907:
	.ascii	"__need_NULL \000"
.LASF615:
	.ascii	"__OBSOLETE_MATH_DEFAULT 0\000"
.LASF453:
	.ascii	"_DEFAULT_SOURCE 1\000"
.LASF192:
	.ascii	"__FLT32_MANT_DIG__ 24\000"
.LASF980:
	.ascii	"_errno\000"
.LASF202:
	.ascii	"__FLT32_DENORM_MIN__ 1.4012984643248171e-45F32\000"
.LASF841:
	.ascii	"__section(x) __attribute__((__section__(x)))\000"
.LASF701:
	.ascii	"offsetof(TYPE,MEMBER) __builtin_offsetof (TYPE, MEM"
	.ascii	"BER)\000"
.LASF126:
	.ascii	"__UINT64_C(c) c ## ULL\000"
.LASF57:
	.ascii	"__UINT_LEAST64_TYPE__ long long unsigned int\000"
.LASF187:
	.ascii	"__LDBL_EPSILON__ 2.2204460492503131e-16L\000"
.LASF836:
	.ascii	"__pure2 __attribute__((__const__))\000"
.LASF380:
	.ascii	"__GCC_ATOMIC_CHAR16_T_LOCK_FREE 2\000"
.LASF887:
	.ascii	"__NULLABILITY_PRAGMA_PUSH \000"
.LASF1020:
	.ascii	"_signal_buf\000"
.LASF167:
	.ascii	"__DBL_MAX_EXP__ 1024\000"
.LASF505:
	.ascii	"__FAST64 \"ll\"\000"
.LASF12:
	.ascii	"__ATOMIC_RELEASE 3\000"
.LASF490:
	.ascii	"unsigned +0\000"
.LASF231:
	.ascii	"__FLT32X_HAS_DENORM__ 1\000"
.LASF148:
	.ascii	"__FLT_MANT_DIG__ 24\000"
.LASF735:
	.ascii	"_RAND48_SEED_1 (0xabcd)\000"
.LASF352:
	.ascii	"__UDQ_IBIT__ 0\000"
.LASF659:
	.ascii	"___int_ptrdiff_t_h \000"
.LASF15:
	.ascii	"__OPTIMIZE__ 1\000"
.LASF850:
	.ascii	"__nonnull(x) __attribute__((__nonnull__(x)))\000"
.LASF822:
	.ascii	"__CC_SUPPORTS___FUNC__ 1\000"
.LASF940:
	.ascii	"_Bigint\000"
.LASF504:
	.ascii	"__FAST32 \000"
.LASF493:
	.ascii	"__int20 +2\000"
.LASF317:
	.ascii	"__LACCUM_MIN__ (-0X1P31LK-0X1P31LK)\000"
.LASF188:
	.ascii	"__LDBL_DENORM_MIN__ 4.9406564584124654e-324L\000"
.LASF102:
	.ascii	"__INT64_MAX__ 0x7fffffffffffffffLL\000"
.LASF396:
	.ascii	"__ARM_FEATURE_SAT 1\000"
.LASF66:
	.ascii	"__INTPTR_TYPE__ int\000"
.LASF516:
	.ascii	"__int16_t_defined 1\000"
.LASF291:
	.ascii	"__ULLFRACT_IBIT__ 0\000"
.LASF652:
	.ascii	"_ANSI_STDDEF_H \000"
.LASF657:
	.ascii	"_PTRDIFF_T_ \000"
.LASF723:
	.ascii	"__need_wint_t\000"
.LASF989:
	.ascii	"__cleanup\000"
.LASF997:
	.ascii	"_atexit0\000"
.LASF733:
	.ascii	"_REENT_SMALL_CHECK_INIT(ptr) \000"
.LASF831:
	.ascii	"__const const\000"
.LASF842:
	.ascii	"__alloc_size(x) __attribute__((__alloc_size__(x)))\000"
.LASF85:
	.ascii	"__LONG_WIDTH__ 32\000"
.LASF155:
	.ascii	"__FLT_MAX__ 3.4028234663852886e+38F\000"
.LASF310:
	.ascii	"__UACCUM_FBIT__ 16\000"
.LASF873:
	.ascii	"__warn_references(sym,msg) __asm__(\".section .gnu."
	.ascii	"warning.\" #sym); __asm__(\".asciz \\\"\" msg \"\\\""
	.ascii	"\"); __asm__(\".previous\")\000"
.LASF274:
	.ascii	"__UFRACT_EPSILON__ 0x1P-16UR\000"
.LASF77:
	.ascii	"__WCHAR_MIN__ 0U\000"
.LASF499:
	.ascii	"__INT16 \"h\"\000"
.LASF445:
	.ascii	"_NEWLIB_VERSION_H__ 1\000"
.LASF385:
	.ascii	"__GCC_ATOMIC_LONG_LOCK_FREE 2\000"
.LASF322:
	.ascii	"__ULACCUM_MIN__ 0.0ULK\000"
.LASF604:
	.ascii	"_ATEXIT_DYNAMIC_ALLOC 1\000"
.LASF680:
	.ascii	"__need_size_t\000"
.LASF73:
	.ascii	"__INT_MAX__ 0x7fffffff\000"
.LASF409:
	.ascii	"__ARM_ARCH 7\000"
.LASF670:
	.ascii	"_SIZE_T_ \000"
.LASF634:
	.ascii	"_DOTS , ...\000"
.LASF147:
	.ascii	"__FLT_RADIX__ 2\000"
.LASF919:
	.ascii	"long long int\000"
.LASF758:
	.ascii	"_REENT_RAND48_MULT(ptr) ((ptr)->_new._reent._r48._m"
	.ascii	"ult)\000"
.LASF911:
	.ascii	"MEDIAN_FILTER_SIZE (7)\000"
.LASF552:
	.ascii	"UINT32_MAX (__UINT32_MAX__)\000"
.LASF681:
	.ascii	"__wchar_t__ \000"
.LASF786:
	.ascii	"__PMT(args) args\000"
.LASF191:
	.ascii	"__LDBL_HAS_QUIET_NAN__ 1\000"
.LASF700:
	.ascii	"__need_NULL\000"
.LASF86:
	.ascii	"__LONG_LONG_WIDTH__ 64\000"
.LASF1003:
	.ascii	"_niobs\000"
.LASF584:
	.ascii	"WINT_MAX (__WINT_MAX__)\000"
.LASF573:
	.ascii	"UINT_FAST64_MAX (__UINT_FAST64_MAX__)\000"
.LASF356:
	.ascii	"__HA_IBIT__ 8\000"
.LASF140:
	.ascii	"__INTPTR_WIDTH__ 32\000"
.LASF386:
	.ascii	"__GCC_ATOMIC_LLONG_LOCK_FREE 1\000"
.LASF228:
	.ascii	"__FLT32X_MIN__ 2.2250738585072014e-308F32x\000"
.LASF1029:
	.ascii	"_nmalloc\000"
.LASF210:
	.ascii	"__FLT64_MAX_EXP__ 1024\000"
.LASF686:
	.ascii	"__WCHAR_T \000"
.LASF613:
	.ascii	"__SYS_CONFIG_H__ \000"
.LASF214:
	.ascii	"__FLT64_MIN__ 2.2250738585072014e-308F64\000"
.LASF814:
	.ascii	"__GNUC_VA_LIST_COMPATIBILITY 1\000"
.LASF474:
	.ascii	"___int32_t_defined 1\000"
.LASF1013:
	.ascii	"_gamma_signgam\000"
.LASF606:
	.ascii	"_HAVE_CC_INHIBIT_LOOP_TO_LIBCALL 1\000"
.LASF888:
	.ascii	"__NULLABILITY_PRAGMA_POP \000"
.LASF88:
	.ascii	"__WINT_WIDTH__ 32\000"
.LASF45:
	.ascii	"__INT64_TYPE__ long long int\000"
.LASF275:
	.ascii	"__LFRACT_FBIT__ 31\000"
.LASF546:
	.ascii	"UINT16_MAX (__UINT16_MAX__)\000"
.LASF391:
	.ascii	"__SIZEOF_WCHAR_T__ 4\000"
.LASF653:
	.ascii	"_PTRDIFF_T \000"
.LASF461:
	.ascii	"__BSD_VISIBLE 1\000"
.LASF547:
	.ascii	"INT_LEAST16_MIN (-__INT_LEAST16_MAX__ - 1)\000"
.LASF837:
	.ascii	"__unused __attribute__((__unused__))\000"
.LASF851:
	.ascii	"__nonnull_all __attribute__((__nonnull__))\000"
.LASF220:
	.ascii	"__FLT32X_MANT_DIG__ 53\000"
.LASF993:
	.ascii	"_freelist\000"
.LASF273:
	.ascii	"__UFRACT_MAX__ 0XFFFFP-16UR\000"
.LASF479:
	.ascii	"___int_least64_t_defined 1\000"
.LASF1002:
	.ascii	"_glue\000"
.LASF933:
	.ascii	"_mbstate_t\000"
.LASF938:
	.ascii	"_sign\000"
.LASF113:
	.ascii	"__INT_LEAST32_MAX__ 0x7fffffffL\000"
.LASF776:
	.ascii	"_REENT_L64A_BUF(ptr) ((ptr)->_new._reent._l64a_buf)"
	.ascii	"\000"
.LASF459:
	.ascii	"_ATFILE_SOURCE 1\000"
.LASF482:
	.ascii	"__STDINT_EXP(x) __ ##x ##__\000"
.LASF469:
	.ascii	"__EXP(x) __ ##x ##__\000"
.LASF30:
	.ascii	"__BYTE_ORDER__ __ORDER_LITTLE_ENDIAN__\000"
.LASF201:
	.ascii	"__FLT32_EPSILON__ 1.1920928955078125e-7F32\000"
.LASF426:
	.ascii	"__ARM_NEON_FP\000"
.LASF627:
	.ascii	"_NOTHROW \000"
.LASF751:
	.ascii	"_REENT_CHECK_ASCTIME_BUF(ptr) \000"
.LASF598:
	.ascii	"_ANSIDECL_H_ \000"
.LASF1052:
	.ascii	"C:\\\\Keil\\\\blsd_cntl_my\\\\blsd_cntl_my\\\\Debug"
	.ascii	"\000"
.LASF673:
	.ascii	"_SIZE_T_DEFINED \000"
.LASF270:
	.ascii	"__UFRACT_FBIT__ 16\000"
.LASF351:
	.ascii	"__UDQ_FBIT__ 64\000"
.LASF532:
	.ascii	"__int_fast16_t_defined 1\000"
.LASF182:
	.ascii	"__LDBL_MAX_10_EXP__ 308\000"
.LASF796:
	.ascii	"__bounded \000"
.LASF173:
	.ascii	"__DBL_DENORM_MIN__ ((double)4.9406564584124654e-324"
	.ascii	"L)\000"
.LASF978:
	.ascii	"_flags2\000"
.LASF557:
	.ascii	"INT64_MAX (__INT64_MAX__)\000"
.LASF985:
	.ascii	"_emergency\000"
.LASF921:
	.ascii	"unsigned int\000"
.LASF672:
	.ascii	"_SIZE_T_DEFINED_ \000"
.LASF769:
	.ascii	"_REENT_MBTOWC_STATE(ptr) ((ptr)->_new._reent._mbtow"
	.ascii	"c_state)\000"
.LASF150:
	.ascii	"__FLT_MIN_EXP__ (-125)\000"
.LASF219:
	.ascii	"__FLT64_HAS_QUIET_NAN__ 1\000"
.LASF591:
	.ascii	"UINT32_C(x) __UINT32_C(x)\000"
.LASF333:
	.ascii	"__ULLACCUM_MAX__ 0XFFFFFFFFFFFFFFFFP-32ULLK\000"
.LASF1040:
	.ascii	"datpoint\000"
.LASF848:
	.ascii	"__always_inline __attribute__((__always_inline__))\000"
.LASF562:
	.ascii	"INT_FAST8_MIN (-__INT_FAST8_MAX__ - 1)\000"
.LASF367:
	.ascii	"__UDA_FBIT__ 32\000"
.LASF217:
	.ascii	"__FLT64_HAS_DENORM__ 1\000"
.LASF149:
	.ascii	"__FLT_DIG__ 6\000"
.LASF1027:
	.ascii	"_h_errno\000"
.LASF608:
	.ascii	"_FVWRITE_IN_STREAMIO 1\000"
.LASF695:
	.ascii	"_WCHAR_T_DECLARED \000"
.LASF25:
	.ascii	"__CHAR_BIT__ 8\000"
.LASF649:
	.ascii	"_SYS_REENT_H_ \000"
.LASF144:
	.ascii	"__FLT_EVAL_METHOD__ 0\000"
.LASF71:
	.ascii	"__SCHAR_MAX__ 0x7f\000"
.LASF128:
	.ascii	"__INT_FAST8_WIDTH__ 32\000"
.LASF2:
	.ascii	"__STDC_UTF_16__ 1\000"
.LASF739:
	.ascii	"_RAND48_MULT_2 (0x0005)\000"
.LASF636:
	.ascii	"_EXFUN_NOTHROW(name,proto) name proto _NOTHROW\000"
.LASF655:
	.ascii	"_T_PTRDIFF \000"
.LASF345:
	.ascii	"__UQQ_FBIT__ 8\000"
.LASF1025:
	.ascii	"_wcrtomb_state\000"
.LASF420:
	.ascii	"__ARM_FP16_ARGS\000"
.LASF313:
	.ascii	"__UACCUM_MAX__ 0XFFFFFFFFP-16UK\000"
.LASF945:
	.ascii	"__tm_mday\000"
.LASF491:
	.ascii	"char +0\000"
.LASF278:
	.ascii	"__LFRACT_MAX__ 0X7FFFFFFFP-31LR\000"
.LASF393:
	.ascii	"__SIZEOF_PTRDIFF_T__ 4\000"
.LASF517:
	.ascii	"_INT32_T_DECLARED \000"
.LASF996:
	.ascii	"_new\000"
.LASF476:
	.ascii	"___int_least8_t_defined 1\000"
.LASF432:
	.ascii	"__ARM_FEATURE_IDIV 1\000"
.LASF971:
	.ascii	"_ubuf\000"
.LASF31:
	.ascii	"__FLOAT_WORD_ORDER__ __ORDER_LITTLE_ENDIAN__\000"
.LASF46:
	.ascii	"__UINT8_TYPE__ unsigned char\000"
.LASF983:
	.ascii	"_stderr\000"
.LASF753:
	.ascii	"_REENT_CHECK_MISC(ptr) \000"
.LASF531:
	.ascii	"__int_fast8_t_defined 1\000"
.LASF620:
	.ascii	"__EXPORT \000"
.LASF434:
	.ascii	"__ARM_FEATURE_COPROC 15\000"
.LASF977:
	.ascii	"_mbstate\000"
.LASF879:
	.ascii	"__SCCSID(s) struct __hack\000"
.LASF83:
	.ascii	"__SHRT_WIDTH__ 16\000"
.LASF29:
	.ascii	"__ORDER_PDP_ENDIAN__ 3412\000"
.LASF1014:
	.ascii	"_rand_next\000"
.LASF250:
	.ascii	"__DEC128_MAX_EXP__ 6145\000"
.LASF963:
	.ascii	"_flags\000"
.LASF621:
	.ascii	"__IMPORT \000"
.LASF736:
	.ascii	"_RAND48_SEED_2 (0x1234)\000"
.LASF661:
	.ascii	"_PTRDIFF_T_DECLARED \000"
.LASF365:
	.ascii	"__USA_FBIT__ 16\000"
.LASF833:
	.ascii	"__volatile volatile\000"
.LASF704:
	.ascii	"_MACHINE__TYPES_H \000"
.LASF60:
	.ascii	"__INT_FAST32_TYPE__ int\000"
.LASF712:
	.ascii	"__lock_close_recursive(lock) __retarget_lock_close_"
	.ascii	"recursive(lock)\000"
.LASF180:
	.ascii	"__LDBL_MIN_10_EXP__ (-307)\000"
.LASF379:
	.ascii	"__GCC_ATOMIC_CHAR_LOCK_FREE 2\000"
.LASF956:
	.ascii	"_atexit\000"
.LASF279:
	.ascii	"__LFRACT_EPSILON__ 0x1P-31LR\000"
.LASF858:
	.ascii	"__predict_false(exp) __builtin_expect((exp), 0)\000"
.LASF625:
	.ascii	"_BEGIN_STD_C \000"
.LASF846:
	.ascii	"__malloc_like __attribute__((__malloc__))\000"
.LASF405:
	.ascii	"__ARM_SIZEOF_MINIMAL_ENUM 1\000"
.LASF617:
	.ascii	"_POINTER_INT long\000"
.LASF408:
	.ascii	"__arm__ 1\000"
.LASF821:
	.ascii	"__CC_SUPPORTS___INLINE__ 1\000"
.LASF195:
	.ascii	"__FLT32_MIN_10_EXP__ (-37)\000"
.LASF676:
	.ascii	"___int_size_t_h \000"
.LASF931:
	.ascii	"__count\000"
.LASF463:
	.ascii	"__ISO_C_VISIBLE 2011\000"
.LASF544:
	.ascii	"INT16_MIN (-__INT16_MAX__ - 1)\000"
.LASF419:
	.ascii	"__ARM_FP16_FORMAT_ALTERNATIVE\000"
.LASF1034:
	.ascii	"_global_impure_ptr\000"
.LASF234:
	.ascii	"__DEC32_MANT_DIG__ 7\000"
.LASF443:
	.ascii	"_MACHINE__DEFAULT_TYPES_H \000"
.LASF26:
	.ascii	"__BIGGEST_ALIGNMENT__ 8\000"
.LASF660:
	.ascii	"_GCC_PTRDIFF_T \000"
.LASF816:
	.ascii	"__GNUCLIKE_BUILTIN_NEXT_ARG 1\000"
.LASF407:
	.ascii	"__ARM_ARCH_PROFILE 77\000"
.LASF509:
	.ascii	"__LEAST64 \"ll\"\000"
.LASF948:
	.ascii	"__tm_wday\000"
.LASF691:
	.ascii	"_WCHAR_T_H \000"
.LASF399:
	.ascii	"__ARM_FEATURE_QRDMX\000"
.LASF414:
	.ascii	"__ARM_ARCH_ISA_THUMB 2\000"
.LASF75:
	.ascii	"__LONG_LONG_MAX__ 0x7fffffffffffffffLL\000"
.LASF609:
	.ascii	"_FSEEK_OPTIMIZATION 1\000"
.LASF924:
	.ascii	"long double\000"
.LASF970:
	.ascii	"_close\000"
.LASF488:
	.ascii	"long\000"
.LASF829:
	.ascii	"__STRING(x) #x\000"
.LASF350:
	.ascii	"__USQ_IBIT__ 0\000"
.LASF486:
	.ascii	"short\000"
.LASF779:
	.ascii	"_REENT_INIT_PTR(var) { memset((var), 0, sizeof(*(va"
	.ascii	"r))); _REENT_INIT_PTR_ZEROED(var); }\000"
.LASF880:
	.ascii	"__COPYRIGHT(s) struct __hack\000"
.LASF271:
	.ascii	"__UFRACT_IBIT__ 0\000"
.LASF400:
	.ascii	"__ARM_32BIT_STATE 1\000"
.LASF771:
	.ascii	"_REENT_MBRLEN_STATE(ptr) ((ptr)->_new._reent._mbrle"
	.ascii	"n_state)\000"
.LASF108:
	.ascii	"__INT8_C(c) c\000"
.LASF276:
	.ascii	"__LFRACT_IBIT__ 0\000"
.LASF651:
	.ascii	"_STDDEF_H_ \000"
.LASF165:
	.ascii	"__DBL_MIN_EXP__ (-1021)\000"
.LASF669:
	.ascii	"__SIZE_T \000"
.LASF1006:
	.ascii	"_seed\000"
.LASF870:
	.ascii	"__printf0like(fmtarg,firstvararg) \000"
.LASF1047:
	.ascii	"scan\000"
.LASF193:
	.ascii	"__FLT32_DIG__ 6\000"
.LASF969:
	.ascii	"_seek\000"
.LASF4:
	.ascii	"__STDC_HOSTED__ 1\000"
.LASF835:
	.ascii	"__dead2 __attribute__((__noreturn__))\000"
.LASF595:
	.ascii	"UINTMAX_C(x) __UINTMAX_C(x)\000"
.LASF465:
	.ascii	"__MISC_VISIBLE 1\000"
.LASF480:
	.ascii	"__EXP\000"
.LASF475:
	.ascii	"___int64_t_defined 1\000"
.LASF189:
	.ascii	"__LDBL_HAS_DENORM__ 1\000"
.LASF538:
	.ascii	"INT8_MIN (-__INT8_MAX__ - 1)\000"
.LASF930:
	.ascii	"__wchb\000"
.LASF377:
	.ascii	"__GCC_HAVE_SYNC_COMPARE_AND_SWAP_4 1\000"
.LASF802:
	.ascii	"__BEGIN_DECLS \000"
.LASF307:
	.ascii	"__ACCUM_MIN__ (-0X1P15K-0X1P15K)\000"
.LASF629:
	.ascii	"_AND ,\000"
.LASF397:
	.ascii	"__ARM_FEATURE_CRYPTO\000"
.LASF52:
	.ascii	"__INT_LEAST32_TYPE__ long int\000"
.LASF1017:
	.ascii	"_mbtowc_state\000"
.LASF125:
	.ascii	"__UINT_LEAST64_MAX__ 0xffffffffffffffffULL\000"
.LASF266:
	.ascii	"__FRACT_IBIT__ 0\000"
.LASF11:
	.ascii	"__ATOMIC_ACQUIRE 2\000"
.LASF449:
	.ascii	"__NEWLIB_PATCHLEVEL__ 0\000"
.LASF1035:
	.ascii	"pair\000"
.LASF27:
	.ascii	"__ORDER_LITTLE_ENDIAN__ 1234\000"
.LASF719:
	.ascii	"__size_t\000"
.LASF819:
	.ascii	"__CC_SUPPORTS_INLINE 1\000"
.LASF787:
	.ascii	"__DOTS , ...\000"
.LASF241:
	.ascii	"__DEC64_MANT_DIG__ 16\000"
.LASF920:
	.ascii	"long long unsigned int\000"
.LASF561:
	.ascii	"UINT_LEAST64_MAX (__UINT_LEAST64_MAX__)\000"
.LASF151:
	.ascii	"__FLT_MIN_10_EXP__ (-37)\000"
.LASF630:
	.ascii	"_NOARGS void\000"
.LASF321:
	.ascii	"__ULACCUM_IBIT__ 32\000"
.LASF72:
	.ascii	"__SHRT_MAX__ 0x7fff\000"
.LASF564:
	.ascii	"UINT_FAST8_MAX (__UINT_FAST8_MAX__)\000"
.LASF775:
	.ascii	"_REENT_WCSRTOMBS_STATE(ptr) ((ptr)->_new._reent._wc"
	.ascii	"srtombs_state)\000"
.LASF334:
	.ascii	"__ULLACCUM_EPSILON__ 0x1P-32ULLK\000"
.LASF410:
	.ascii	"__APCS_32__ 1\000"
.LASF341:
	.ascii	"__DQ_FBIT__ 63\000"
.LASF301:
	.ascii	"__USACCUM_IBIT__ 8\000"
.LASF462:
	.ascii	"__GNU_VISIBLE 0\000"
.LASF923:
	.ascii	"uint16_t\000"
.LASF1018:
	.ascii	"_wctomb_state\000"
.LASF656:
	.ascii	"__PTRDIFF_T \000"
.LASF348:
	.ascii	"__UHQ_IBIT__ 0\000"
.LASF770:
	.ascii	"_REENT_WCTOMB_STATE(ptr) ((ptr)->_new._reent._wctom"
	.ascii	"b_state)\000"
.LASF953:
	.ascii	"_dso_handle\000"
.LASF59:
	.ascii	"__INT_FAST16_TYPE__ int\000"
.LASF524:
	.ascii	"_UINTMAX_T_DECLARED \000"
.LASF297:
	.ascii	"__SACCUM_MIN__ (-0X1P7HK-0X1P7HK)\000"
.LASF1005:
	.ascii	"_rand48\000"
.LASF55:
	.ascii	"__UINT_LEAST16_TYPE__ short unsigned int\000"
.LASF523:
	.ascii	"_INTMAX_T_DECLARED \000"
.LASF318:
	.ascii	"__LACCUM_MAX__ 0X7FFFFFFFFFFFFFFFP-31LK\000"
.LASF39:
	.ascii	"__CHAR16_TYPE__ short unsigned int\000"
.LASF221:
	.ascii	"__FLT32X_DIG__ 15\000"
.LASF832:
	.ascii	"__signed signed\000"
.LASF353:
	.ascii	"__UTQ_FBIT__ 128\000"
.LASF764:
	.ascii	"_REENT_ASCTIME_BUF(ptr) ((ptr)->_new._reent._asctim"
	.ascii	"e_buf)\000"
.LASF329:
	.ascii	"__LLACCUM_EPSILON__ 0x1P-31LLK\000"
.LASF16:
	.ascii	"__FINITE_MATH_ONLY__ 0\000"
.LASF129:
	.ascii	"__INT_FAST16_MAX__ 0x7fffffff\000"
.LASF470:
	.ascii	"__have_longlong64 1\000"
.LASF973:
	.ascii	"_blksize\000"
.LASF762:
	.ascii	"_REENT_MP_P5S(ptr) ((ptr)->_p5s)\000"
.LASF715:
	.ascii	"__lock_try_acquire(lock) __retarget_lock_try_acquir"
	.ascii	"e(lock)\000"
.LASF526:
	.ascii	"_UINTPTR_T_DECLARED \000"
.LASF690:
	.ascii	"_WCHAR_T_DEFINED \000"
.LASF960:
	.ascii	"_base\000"
.LASF323:
	.ascii	"__ULACCUM_MAX__ 0XFFFFFFFFFFFFFFFFP-32ULK\000"
.LASF895:
	.ascii	"__trylocks_exclusive(...) __lock_annotate(exclusive"
	.ascii	"_trylock_function(__VA_ARGS__))\000"
.LASF111:
	.ascii	"__INT16_C(c) c\000"
.LASF614:
	.ascii	"__IEEE_LITTLE_ENDIAN \000"
.LASF282:
	.ascii	"__ULFRACT_MIN__ 0.0ULR\000"
.LASF577:
	.ascii	"SIZE_MAX (__SIZE_MAX__)\000"
.LASF824:
	.ascii	"__CC_SUPPORTS_VARADIC_XXX 1\000"
.LASF342:
	.ascii	"__DQ_IBIT__ 0\000"
.LASF44:
	.ascii	"__INT32_TYPE__ long int\000"
.LASF889:
	.ascii	"__arg_type_tag(arg_kind,arg_idx,type_tag_idx) \000"
.LASF1023:
	.ascii	"_mbrtowc_state\000"
.LASF864:
	.ascii	"__containerof(x,s,m) ({ const volatile __typeof(((s"
	.ascii	" *)0)->m) *__x = (x); __DEQUALIFY(s *, (const volat"
	.ascii	"ile char *)__x - __offsetof(s, m));})\000"
.LASF641:
	.ascii	"_DEFUN_VOID(name) name(_NOARGS)\000"
.LASF671:
	.ascii	"_BSD_SIZE_T_ \000"
.LASF319:
	.ascii	"__LACCUM_EPSILON__ 0x1P-31LK\000"
.LASF903:
	.ascii	"__no_lock_analysis __lock_annotate(no_thread_safety"
	.ascii	"_analysis)\000"
.LASF687:
	.ascii	"_WCHAR_T_ \000"
.LASF934:
	.ascii	"_flock_t\000"
.LASF745:
	.ascii	"_REENT_STDIO_STREAM(var,index) &(var)->__sf[index]\000"
.LASF1001:
	.ascii	"__FILE\000"
.LASF725:
	.ascii	"_TIME_T_ __int_least64_t\000"
.LASF726:
	.ascii	"_CLOCKID_T_ unsigned long\000"
.LASF750:
	.ascii	"_REENT_CHECK_TM(ptr) \000"
.LASF354:
	.ascii	"__UTQ_IBIT__ 0\000"
.LASF803:
	.ascii	"__END_DECLS \000"
.LASF357:
	.ascii	"__SA_FBIT__ 15\000"
.LASF955:
	.ascii	"_is_cxa\000"
.LASF227:
	.ascii	"__FLT32X_MAX__ 1.7976931348623157e+308F32x\000"
.LASF642:
	.ascii	"_CAST_VOID (void)\000"
.LASF430:
	.ascii	"__ARM_EABI__ 1\000"
.LASF1015:
	.ascii	"_r48\000"
.LASF311:
	.ascii	"__UACCUM_IBIT__ 16\000"
.LASF631:
	.ascii	"_CONST const\000"
.LASF436:
	.ascii	"__ELF__ 1\000"
.LASF413:
	.ascii	"__THUMBEL__ 1\000"
.LASF694:
	.ascii	"_GCC_WCHAR_T \000"
.LASF394:
	.ascii	"__ARM_FEATURE_DSP 1\000"
.LASF336:
	.ascii	"__QQ_IBIT__ 0\000"
.LASF936:
	.ascii	"_next\000"
.LASF593:
	.ascii	"UINT64_C(x) __UINT64_C(x)\000"
.LASF325:
	.ascii	"__LLACCUM_FBIT__ 31\000"
.LASF975:
	.ascii	"_data\000"
.LASF38:
	.ascii	"__UINTMAX_TYPE__ long long unsigned int\000"
.LASF223:
	.ascii	"__FLT32X_MIN_10_EXP__ (-307)\000"
.LASF543:
	.ascii	"UINT_LEAST8_MAX (__UINT_LEAST8_MAX__)\000"
.LASF6:
	.ascii	"__GNUC_MINOR__ 2\000"
.LASF56:
	.ascii	"__UINT_LEAST32_TYPE__ long unsigned int\000"
.LASF403:
	.ascii	"__ARM_FEATURE_NUMERIC_MAXMIN\000"
.LASF738:
	.ascii	"_RAND48_MULT_1 (0xdeec)\000"
.LASF37:
	.ascii	"__INTMAX_TYPE__ long long int\000"
.LASF869:
	.ascii	"__strftimelike(fmtarg,firstvararg) __attribute__((_"
	.ascii	"_format__ (__strftime__, fmtarg, firstvararg)))\000"
.LASF384:
	.ascii	"__GCC_ATOMIC_INT_LOCK_FREE 2\000"
.LASF734:
	.ascii	"_RAND48_SEED_0 (0x330e)\000"
.LASF702:
	.ascii	"_GCC_MAX_ALIGN_T \000"
.LASF428:
	.ascii	"__ARM_ARCH_7EM__ 1\000"
.LASF478:
	.ascii	"___int_least32_t_defined 1\000"
.LASF421:
	.ascii	"__ARM_FEATURE_FP16_SCALAR_ARITHMETIC\000"
.LASF304:
	.ascii	"__USACCUM_EPSILON__ 0x1P-8UHK\000"
.LASF176:
	.ascii	"__DBL_HAS_QUIET_NAN__ 1\000"
.LASF590:
	.ascii	"INT32_C(x) __INT32_C(x)\000"
.LASF567:
	.ascii	"UINT_FAST16_MAX (__UINT_FAST16_MAX__)\000"
.LASF648:
	.ascii	"_NOINLINE_STATIC _NOINLINE static\000"
.LASF288:
	.ascii	"__LLFRACT_MAX__ 0X7FFFFFFFFFFFFFFFP-63LLR\000"
.LASF555:
	.ascii	"UINT_LEAST32_MAX (__UINT_LEAST32_MAX__)\000"
.LASF752:
	.ascii	"_REENT_CHECK_EMERGENCY(ptr) \000"
.LASF298:
	.ascii	"__SACCUM_MAX__ 0X7FFFP-7HK\000"
.LASF570:
	.ascii	"UINT_FAST32_MAX (__UINT_FAST32_MAX__)\000"
.LASF67:
	.ascii	"__UINTPTR_TYPE__ unsigned int\000"
.LASF284:
	.ascii	"__ULFRACT_EPSILON__ 0x1P-32ULR\000"
.LASF371:
	.ascii	"__REGISTER_PREFIX__ \000"
.LASF199:
	.ascii	"__FLT32_MAX__ 3.4028234663852886e+38F32\000"
.LASF164:
	.ascii	"__DBL_DIG__ 15\000"
.LASF515:
	.ascii	"_UINT16_T_DECLARED \000"
.LASF877:
	.ascii	"__RCSID(s) struct __hack\000"
.LASF24:
	.ascii	"__SIZEOF_SIZE_T__ 4\000"
.LASF49:
	.ascii	"__UINT64_TYPE__ long long unsigned int\000"
.LASF251:
	.ascii	"__DEC128_MIN__ 1E-6143DL\000"
.LASF117:
	.ascii	"__INT64_C(c) c ## LL\000"
.LASF603:
	.ascii	"HAVE_INITFINI_ARRAY 1\000"
.LASF892:
	.ascii	"__lockable __lock_annotate(lockable)\000"
.LASF624:
	.ascii	"_HAVE_STDC \000"
.LASF890:
	.ascii	"__datatype_type_tag(kind,type) \000"
.LASF74:
	.ascii	"__LONG_MAX__ 0x7fffffffL\000"
.LASF306:
	.ascii	"__ACCUM_IBIT__ 16\000"
.LASF484:
	.ascii	"unsigned\000"
.LASF1016:
	.ascii	"_mblen_state\000"
.LASF801:
	.ascii	"__has_builtin(x) 0\000"
.LASF597:
	.ascii	"_STRING_H_ \000"
.LASF915:
	.ascii	"short int\000"
.LASF650:
	.ascii	"_STDDEF_H \000"
.LASF905:
	.ascii	"__pt_guarded_by(x) __lock_annotate(pt_guarded_by(x)"
	.ascii	")\000"
.LASF904:
	.ascii	"__guarded_by(x) __lock_annotate(guarded_by(x))\000"
.LASF666:
	.ascii	"_SYS_SIZE_T_H \000"
.LASF122:
	.ascii	"__UINT16_C(c) c\000"
.LASF732:
	.ascii	"_REENT_INIT_ATEXIT _NULL, _ATEXIT_INIT,\000"
.LASF944:
	.ascii	"__tm_hour\000"
.LASF368:
	.ascii	"__UDA_IBIT__ 32\000"
.LASF507:
	.ascii	"__LEAST16 \"h\"\000"
.LASF865:
	.ascii	"__printflike(fmtarg,firstvararg) __attribute__((__f"
	.ascii	"ormat__ (__printf__, fmtarg, firstvararg)))\000"
.LASF536:
	.ascii	"INTPTR_MAX (__INTPTR_MAX__)\000"
.LASF852:
	.ascii	"__fastcall __attribute__((__fastcall__))\000"
.LASF1043:
	.ascii	"median_context_t\000"
.LASF556:
	.ascii	"INT64_MIN (-__INT64_MAX__ - 1)\000"
.LASF891:
	.ascii	"__lock_annotate(x) \000"
.LASF9:
	.ascii	"__ATOMIC_RELAXED 0\000"
.LASF645:
	.ascii	"_ATTRIBUTE(attrs) __attribute__ (attrs)\000"
.LASF781:
	.ascii	"__ATTRIBUTE_IMPURE_PTR__ \000"
.LASF175:
	.ascii	"__DBL_HAS_INFINITY__ 1\000"
.LASF96:
	.ascii	"__SIG_ATOMIC_MAX__ 0x7fffffff\000"
.LASF558:
	.ascii	"UINT64_MAX (__UINT64_MAX__)\000"
.LASF612:
	.ascii	"_RETARGETABLE_LOCKING 1\000"
.LASF863:
	.ascii	"__rangeof(type,start,end) (__offsetof(type, end) - "
	.ascii	"__offsetof(type, start))\000"
.LASF637:
	.ascii	"_EXFUN(name,proto) name proto\000"
.LASF807:
	.ascii	"__GNUCLIKE___OFFSETOF 1\000"
.LASF437:
	.ascii	"__USES_INITFINI__ 1\000"
.LASF587:
	.ascii	"UINT8_C(x) __UINT8_C(x)\000"
.LASF244:
	.ascii	"__DEC64_MIN__ 1E-383DD\000"
.LASF662:
	.ascii	"__need_ptrdiff_t\000"
.LASF283:
	.ascii	"__ULFRACT_MAX__ 0XFFFFFFFFP-32ULR\000"
.LASF169:
	.ascii	"__DBL_DECIMAL_DIG__ 17\000"
.LASF937:
	.ascii	"_maxwds\000"
.LASF471:
	.ascii	"__have_long32 1\000"
.LASF783:
	.ascii	"_GLOBAL_REENT _global_impure_ptr\000"
.LASF728:
	.ascii	"_NULL 0\000"
.LASF795:
	.ascii	"__flexarr [0]\000"
.LASF947:
	.ascii	"__tm_year\000"
.LASF522:
	.ascii	"__int64_t_defined 1\000"
.LASF100:
	.ascii	"__INT16_MAX__ 0x7fff\000"
.LASF601:
	.ascii	"_WANT_REGISTER_FINI 1\000"
.LASF882:
	.ascii	"__DEVOLATILE(type,var) ((type)(__uintptr_t)(volatil"
	.ascii	"e void *)(var))\000"
.LASF682:
	.ascii	"__WCHAR_T__ \000"
.LASF84:
	.ascii	"__INT_WIDTH__ 32\000"
.LASF404:
	.ascii	"__ARM_FEATURE_SIMD32 1\000"
.LASF853:
	.ascii	"__result_use_check __attribute__((__warn_unused_res"
	.ascii	"ult__))\000"
.LASF468:
	.ascii	"__XSI_VISIBLE 0\000"
.LASF335:
	.ascii	"__QQ_FBIT__ 7\000"
.LASF98:
	.ascii	"__SIG_ATOMIC_WIDTH__ 32\000"
.LASF215:
	.ascii	"__FLT64_EPSILON__ 2.2204460492503131e-16F64\000"
.LASF451:
	.ascii	"__GNUC_PREREQ__(ma,mi) __GNUC_PREREQ(ma, mi)\000"
.LASF370:
	.ascii	"__UTA_IBIT__ 64\000"
.LASF331:
	.ascii	"__ULLACCUM_IBIT__ 32\000"
.LASF1054:
	.ascii	"median_filter_init\000"
.LASF871:
	.ascii	"__strong_reference(sym,aliassym) extern __typeof (s"
	.ascii	"ym) aliassym __attribute__ ((__alias__ (#sym)))\000"
.LASF294:
	.ascii	"__ULLFRACT_EPSILON__ 0x1P-64ULLR\000"
.LASF727:
	.ascii	"_TIMER_T_ unsigned long\000"
.LASF965:
	.ascii	"_lbfsize\000"
.LASF730:
	.ascii	"_ATEXIT_SIZE 32\000"
.LASF392:
	.ascii	"__SIZEOF_WINT_T__ 4\000"
.LASF957:
	.ascii	"_ind\000"
.LASF611:
	.ascii	"_UNBUF_STREAM_OPT 1\000"
.LASF398:
	.ascii	"__ARM_FEATURE_UNALIGNED 1\000"
.LASF0:
	.ascii	"__STDC__ 1\000"
.LASF8:
	.ascii	"__VERSION__ \"7.2.1 20170904 (release) [ARM/embedde"
	.ascii	"d-7-branch revision 255204]\"\000"
.LASF635:
	.ascii	"_VOID void\000"
.LASF804:
	.ascii	"__GNUCLIKE_ASM 3\000"
.LASF489:
	.ascii	"signed +0\000"
.LASF127:
	.ascii	"__INT_FAST8_MAX__ 0x7fffffff\000"
.LASF203:
	.ascii	"__FLT32_HAS_DENORM__ 1\000"
.LASF866:
	.ascii	"__scanflike(fmtarg,firstvararg) __attribute__((__fo"
	.ascii	"rmat__ (__scanf__, fmtarg, firstvararg)))\000"
.LASF502:
	.ascii	"__FAST8 \000"
.LASF332:
	.ascii	"__ULLACCUM_MIN__ 0.0ULLK\000"
.LASF703:
	.ascii	"_SYS__TYPES_H \000"
.LASF132:
	.ascii	"__INT_FAST32_WIDTH__ 32\000"
.LASF737:
	.ascii	"_RAND48_MULT_0 (0xe66d)\000"
.LASF1045:
	.ascii	"pctx\000"
.LASF925:
	.ascii	"_LOCK_T\000"
.LASF813:
	.ascii	"__GNUCLIKE_BUILTIN_VAALIST 1\000"
.LASF646:
	.ascii	"_ELIDABLE_INLINE static __inline__\000"
.LASF874:
	.ascii	"__sym_compat(sym,impl,verid) __asm__(\".symver \" #"
	.ascii	"impl \", \" #sym \"@\" #verid)\000"
.LASF1028:
	.ascii	"_nextf\000"
.LASF500:
	.ascii	"__INT32 \"l\"\000"
.LASF433:
	.ascii	"__ARM_ASM_SYNTAX_UNIFIED__ 1\000"
.LASF48:
	.ascii	"__UINT32_TYPE__ long unsigned int\000"
.LASF805:
	.ascii	"__GNUCLIKE_MATH_BUILTIN_CONSTANTS \000"
.LASF729:
	.ascii	"__Long long\000"
.LASF412:
	.ascii	"__thumb2__ 1\000"
.LASF452:
	.ascii	"_DEFAULT_SOURCE\000"
.LASF429:
	.ascii	"__ARM_PCS_VFP 1\000"
.LASF677:
	.ascii	"_GCC_SIZE_T \000"
.LASF778:
	.ascii	"_REENT_GETDATE_ERR_P(ptr) (&((ptr)->_new._reent._ge"
	.ascii	"tdate_err))\000"
.LASF823:
	.ascii	"__CC_SUPPORTS_WARNING 1\000"
.LASF292:
	.ascii	"__ULLFRACT_MIN__ 0.0ULLR\000"
.LASF684:
	.ascii	"_T_WCHAR_ \000"
.LASF987:
	.ascii	"_locale\000"
.LASF935:
	.ascii	"__ULong\000"
.LASF748:
	.ascii	"_REENT_CHECK_RAND48(ptr) \000"
.LASF511:
	.ascii	"_INT8_T_DECLARED \000"
.LASF17:
	.ascii	"__SIZEOF_INT__ 4\000"
.LASF696:
	.ascii	"_BSD_WCHAR_T_\000"
.LASF286:
	.ascii	"__LLFRACT_IBIT__ 0\000"
.LASF589:
	.ascii	"UINT16_C(x) __UINT16_C(x)\000"
.LASF287:
	.ascii	"__LLFRACT_MIN__ (-0.5LLR-0.5LLR)\000"
.LASF856:
	.ascii	"__restrict restrict\000"
.LASF481:
	.ascii	"_SYS__INTSUP_H \000"
.LASF299:
	.ascii	"__SACCUM_EPSILON__ 0x1P-7HK\000"
.LASF818:
	.ascii	"__GNUCLIKE_BUILTIN_MEMCPY 1\000"
.LASF990:
	.ascii	"_result\000"
.LASF572:
	.ascii	"INT_FAST64_MAX (__INT_FAST64_MAX__)\000"
.LASF417:
	.ascii	"__ARM_FP 4\000"
.LASF455:
	.ascii	"_POSIX_SOURCE 1\000"
.LASF63:
	.ascii	"__UINT_FAST16_TYPE__ unsigned int\000"
.LASF364:
	.ascii	"__UHA_IBIT__ 8\000"
.LASF927:
	.ascii	"_fpos_t\000"
.LASF309:
	.ascii	"__ACCUM_EPSILON__ 0x1P-15K\000"
.LASF324:
	.ascii	"__ULACCUM_EPSILON__ 0x1P-32ULK\000"
.LASF178:
	.ascii	"__LDBL_DIG__ 15\000"
.LASF171:
	.ascii	"__DBL_MIN__ ((double)2.2250738585072014e-308L)\000"
.LASF90:
	.ascii	"__SIZE_WIDTH__ 32\000"
.LASF628:
	.ascii	"_PTR void *\000"
.LASF79:
	.ascii	"__WINT_MIN__ 0U\000"
.LASF926:
	.ascii	"_off_t\000"
.LASF207:
	.ascii	"__FLT64_DIG__ 15\000"
.LASF246:
	.ascii	"__DEC64_EPSILON__ 1E-15DD\000"
.LASF78:
	.ascii	"__WINT_MAX__ 0xffffffffU\000"
.LASF109:
	.ascii	"__INT_LEAST8_WIDTH__ 8\000"
.LASF791:
	.ascii	"__long_double_t long double\000"
.LASF51:
	.ascii	"__INT_LEAST16_TYPE__ short int\000"
.LASF1008:
	.ascii	"_add\000"
.LASF170:
	.ascii	"__DBL_MAX__ ((double)1.7976931348623157e+308L)\000"
.LASF774:
	.ascii	"_REENT_WCRTOMB_STATE(ptr) ((ptr)->_new._reent._wcrt"
	.ascii	"omb_state)\000"
.LASF916:
	.ascii	"short unsigned int\000"
.LASF285:
	.ascii	"__LLFRACT_FBIT__ 63\000"
.LASF204:
	.ascii	"__FLT32_HAS_INFINITY__ 1\000"
.LASF411:
	.ascii	"__thumb__ 1\000"
.LASF962:
	.ascii	"__sFILE\000"
.LASF415:
	.ascii	"__ARMEL__ 1\000"
.LASF867:
	.ascii	"__format_arg(fmtarg) __attribute__((__format_arg__ "
	.ascii	"(fmtarg)))\000"
.LASF815:
	.ascii	"__compiler_membar() __asm __volatile(\" \" : : : \""
	.ascii	"memory\")\000"
.LASF711:
	.ascii	"__lock_close(lock) __retarget_lock_close(lock)\000"
.LASF337:
	.ascii	"__HQ_FBIT__ 15\000"
.LASF767:
	.ascii	"_REENT_STRTOK_LAST(ptr) ((ptr)->_new._reent._strtok"
	.ascii	"_last)\000"
.LASF497:
	.ascii	"_INT32_EQ_LONG \000"
.LASF777:
	.ascii	"_REENT_SIGNAL_BUF(ptr) ((ptr)->_new._reent._signal_"
	.ascii	"buf)\000"
.LASF81:
	.ascii	"__SIZE_MAX__ 0xffffffffU\000"
.LASF721:
	.ascii	"__need_wint_t \000"
.LASF1024:
	.ascii	"_mbsrtowcs_state\000"
.LASF185:
	.ascii	"__LDBL_MAX__ 1.7976931348623157e+308L\000"
.LASF540:
	.ascii	"UINT8_MAX (__UINT8_MAX__)\000"
.LASF256:
	.ascii	"__SFRACT_IBIT__ 0\000"
.LASF785:
	.ascii	"_SYS_CDEFS_H_ \000"
.LASF527:
	.ascii	"__int_least8_t_defined 1\000"
.LASF495:
	.ascii	"long +4\000"
.LASF740:
	.ascii	"_RAND48_ADD (0x000b)\000"
.LASF401:
	.ascii	"__ARM_FEATURE_LDREX 7\000"
.LASF714:
	.ascii	"__lock_acquire_recursive(lock) __retarget_lock_acqu"
	.ascii	"ire_recursive(lock)\000"
.LASF665:
	.ascii	"_SIZE_T \000"
.LASF742:
	.ascii	"_REENT_ASCTIME_SIZE 26\000"
.LASF289:
	.ascii	"__LLFRACT_EPSILON__ 0x1P-63LLR\000"
.LASF258:
	.ascii	"__SFRACT_MAX__ 0X7FP-7HR\000"
.LASF446:
	.ascii	"_NEWLIB_VERSION \"2.5.0\"\000"
.LASF87:
	.ascii	"__WCHAR_WIDTH__ 32\000"
.LASF520:
	.ascii	"_INT64_T_DECLARED \000"
.LASF999:
	.ascii	"__sglue\000"
.LASF1051:
	.ascii	"../Src/median.c\000"
.LASF529:
	.ascii	"__int_least32_t_defined 1\000"
.LASF360:
	.ascii	"__DA_IBIT__ 32\000"
.LASF261:
	.ascii	"__USFRACT_IBIT__ 0\000"
.LASF492:
	.ascii	"short +1\000"
.LASF950:
	.ascii	"__tm_isdst\000"
.LASF883:
	.ascii	"__DEQUALIFY(type,var) ((type)(__uintptr_t)(const vo"
	.ascii	"latile void *)(var))\000"
.LASF747:
	.ascii	"_REENT_INIT_PTR_ZEROED(var) { (var)->_stdin = _REEN"
	.ascii	"T_STDIO_STREAM(var, 0); (var)->_stdout = _REENT_STD"
	.ascii	"IO_STREAM(var, 1); (var)->_stderr = _REENT_STDIO_ST"
	.ascii	"REAM(var, 2); (var)->_new._reent._rand_next = 1; (v"
	.ascii	"ar)->_new._reent._r48._seed[0] = _RAND48_SEED_0; (v"
	.ascii	"ar)->_new._reent._r48._seed[1] = _RAND48_SEED_1; (v"
	.ascii	"ar)->_new._reent._r48._seed[2] = _RAND48_SEED_2; (v"
	.ascii	"ar)->_new._reent._r48._mult[0] = _RAND48_MULT_0; (v"
	.ascii	"ar)->_new._reent._r48._mult[1] = _RAND48_MULT_1; (v"
	.ascii	"ar)->_new._reent._r48._mult[2] = _RAND48_MULT_2; (v"
	.ascii	"ar)->_new._reent._r48._add = _RAND48_ADD; }\000"
.LASF710:
	.ascii	"__lock_init_recursive(lock) __retarget_lock_init_re"
	.ascii	"cursive(&lock)\000"
.LASF13:
	.ascii	"__ATOMIC_ACQ_REL 4\000"
.LASF50:
	.ascii	"__INT_LEAST8_TYPE__ signed char\000"
.LASF338:
	.ascii	"__HQ_IBIT__ 0\000"
.LASF839:
	.ascii	"__packed __attribute__((__packed__))\000"
.LASF166:
	.ascii	"__DBL_MIN_10_EXP__ (-307)\000"
.LASF138:
	.ascii	"__UINT_FAST64_MAX__ 0xffffffffffffffffULL\000"
.LASF899:
	.ascii	"__asserts_shared(...) __lock_annotate(assert_shared"
	.ascii	"_lock(__VA_ARGS__))\000"
.LASF798:
	.ascii	"__ptrvalue \000"
.LASF705:
	.ascii	"__SYS_LOCK_H__ \000"
.LASF487:
	.ascii	"__int20\000"
.LASF569:
	.ascii	"INT_FAST32_MAX (__INT_FAST32_MAX__)\000"
.LASF943:
	.ascii	"__tm_min\000"
.LASF638:
	.ascii	"_EXPARM(name,proto) (* name) proto\000"
.LASF456:
	.ascii	"_POSIX_C_SOURCE\000"
.LASF93:
	.ascii	"__UINTMAX_MAX__ 0xffffffffffffffffULL\000"
.LASF163:
	.ascii	"__DBL_MANT_DIG__ 53\000"
.LASF281:
	.ascii	"__ULFRACT_IBIT__ 0\000"
.LASF912:
	.ascii	"STOPPER 0\000"
.LASF594:
	.ascii	"INTMAX_C(x) __INTMAX_C(x)\000"
.LASF528:
	.ascii	"__int_least16_t_defined 1\000"
.LASF53:
	.ascii	"__INT_LEAST64_TYPE__ long long int\000"
.LASF104:
	.ascii	"__UINT16_MAX__ 0xffff\000"
.LASF746:
	.ascii	"_REENT_INIT(var) { 0, _REENT_STDIO_STREAM(&(var), 0"
	.ascii	"), _REENT_STDIO_STREAM(&(var), 1), _REENT_STDIO_STR"
	.ascii	"EAM(&(var), 2), 0, \"\", 0, _NULL, 0, _NULL, _NULL,"
	.ascii	" 0, _NULL, _NULL, 0, _NULL, { { 0, _NULL, \"\", {0,"
	.ascii	" 0, 0, 0, 0, 0, 0, 0, 0}, 0, 1, { {_RAND48_SEED_0, "
	.ascii	"_RAND48_SEED_1, _RAND48_SEED_2}, {_RAND48_MULT_0, _"
	.ascii	"RAND48_MULT_1, _RAND48_MULT_2}, _RAND48_ADD }, {0, "
	.ascii	"{0}}, {0, {0}}, {0, {0}}, \"\", \"\", 0, {0, {0}}, "
	.ascii	"{0, {0}}, {0, {0}}, {0, {0}}, {0, {0}} } }, _REENT_"
	.ascii	"INIT_ATEXIT _NULL, {_NULL, 0, _NULL} }\000"
.LASF295:
	.ascii	"__SACCUM_FBIT__ 7\000"
	.ident	"GCC: (GNU Tools for Arm Embedded Processors 7-2017-q4-major) 7.2.1 20170904 (release) [ARM/embedded-7-branch revision 255204]"
